ARM GAS  C:\Users\user\AppData\Local\Temp\ccAb76rg.s 			page 1


   1              		.syntax unified
   2              		.cpu cortex-m3
   3              		.fpu softvfp
   4              		.eabi_attribute 20, 1
   5              		.eabi_attribute 21, 1
   6              		.eabi_attribute 23, 3
   7              		.eabi_attribute 24, 1
   8              		.eabi_attribute 25, 1
   9              		.eabi_attribute 26, 1
  10              		.eabi_attribute 30, 1
  11              		.eabi_attribute 34, 1
  12              		.eabi_attribute 18, 4
  13              		.thumb
  14              		.syntax unified
  15              		.file	"I2C_1_MASTER.c"
  16              		.text
  17              	.Ltext0:
  18              		.cfi_sections	.debug_frame
  19              		.section	.text.I2C_1_MasterWriteBuf,"ax",%progbits
  20              		.align	2
  21              		.global	I2C_1_MasterWriteBuf
  22              		.thumb
  23              		.thumb_func
  24              		.type	I2C_1_MasterWriteBuf, %function
  25              	I2C_1_MasterWriteBuf:
  26              	.LFB0:
  27              		.file 1 "Generated_Source\\PSoC5\\I2C_1_MASTER.c"
   1:Generated_Source\PSoC5/I2C_1_MASTER.c **** /*******************************************************************************
   2:Generated_Source\PSoC5/I2C_1_MASTER.c **** * File Name: I2C_1_MASTER.c
   3:Generated_Source\PSoC5/I2C_1_MASTER.c **** * Version 3.50
   4:Generated_Source\PSoC5/I2C_1_MASTER.c **** *
   5:Generated_Source\PSoC5/I2C_1_MASTER.c **** * Description:
   6:Generated_Source\PSoC5/I2C_1_MASTER.c **** *  This file provides the source code of APIs for the I2C component master mode.
   7:Generated_Source\PSoC5/I2C_1_MASTER.c **** *
   8:Generated_Source\PSoC5/I2C_1_MASTER.c **** *******************************************************************************
   9:Generated_Source\PSoC5/I2C_1_MASTER.c **** * Copyright 2012-2015, Cypress Semiconductor Corporation. All rights reserved.
  10:Generated_Source\PSoC5/I2C_1_MASTER.c **** * You may use this file only in accordance with the license, terms, conditions,
  11:Generated_Source\PSoC5/I2C_1_MASTER.c **** * disclaimers, and limitations in the end user license agreement accompanying
  12:Generated_Source\PSoC5/I2C_1_MASTER.c **** * the software package with which this file was provided.
  13:Generated_Source\PSoC5/I2C_1_MASTER.c **** *******************************************************************************/
  14:Generated_Source\PSoC5/I2C_1_MASTER.c **** 
  15:Generated_Source\PSoC5/I2C_1_MASTER.c **** #include "I2C_1_PVT.h"
  16:Generated_Source\PSoC5/I2C_1_MASTER.c **** 
  17:Generated_Source\PSoC5/I2C_1_MASTER.c **** #if(I2C_1_MODE_MASTER_ENABLED)
  18:Generated_Source\PSoC5/I2C_1_MASTER.c **** 
  19:Generated_Source\PSoC5/I2C_1_MASTER.c **** /**********************************
  20:Generated_Source\PSoC5/I2C_1_MASTER.c **** *      System variables
  21:Generated_Source\PSoC5/I2C_1_MASTER.c **** **********************************/
  22:Generated_Source\PSoC5/I2C_1_MASTER.c **** 
  23:Generated_Source\PSoC5/I2C_1_MASTER.c **** volatile uint8 I2C_1_mstrStatus;     /* Master Status byte  */
  24:Generated_Source\PSoC5/I2C_1_MASTER.c **** volatile uint8 I2C_1_mstrControl;    /* Master Control byte */
  25:Generated_Source\PSoC5/I2C_1_MASTER.c **** 
  26:Generated_Source\PSoC5/I2C_1_MASTER.c **** /* Transmit buffer variables */
  27:Generated_Source\PSoC5/I2C_1_MASTER.c **** volatile uint8 * I2C_1_mstrRdBufPtr;     /* Pointer to Master Read buffer */
  28:Generated_Source\PSoC5/I2C_1_MASTER.c **** volatile uint8   I2C_1_mstrRdBufSize;    /* Master Read buffer size       */
  29:Generated_Source\PSoC5/I2C_1_MASTER.c **** volatile uint8   I2C_1_mstrRdBufIndex;   /* Master Read buffer Index      */
  30:Generated_Source\PSoC5/I2C_1_MASTER.c **** 
ARM GAS  C:\Users\user\AppData\Local\Temp\ccAb76rg.s 			page 2


  31:Generated_Source\PSoC5/I2C_1_MASTER.c **** /* Receive buffer variables */
  32:Generated_Source\PSoC5/I2C_1_MASTER.c **** volatile uint8 * I2C_1_mstrWrBufPtr;     /* Pointer to Master Write buffer */
  33:Generated_Source\PSoC5/I2C_1_MASTER.c **** volatile uint8   I2C_1_mstrWrBufSize;    /* Master Write buffer size       */
  34:Generated_Source\PSoC5/I2C_1_MASTER.c **** volatile uint8   I2C_1_mstrWrBufIndex;   /* Master Write buffer Index      */
  35:Generated_Source\PSoC5/I2C_1_MASTER.c **** 
  36:Generated_Source\PSoC5/I2C_1_MASTER.c **** 
  37:Generated_Source\PSoC5/I2C_1_MASTER.c **** /*******************************************************************************
  38:Generated_Source\PSoC5/I2C_1_MASTER.c **** * Function Name: I2C_1_MasterWriteBuf
  39:Generated_Source\PSoC5/I2C_1_MASTER.c **** ********************************************************************************
  40:Generated_Source\PSoC5/I2C_1_MASTER.c **** *
  41:Generated_Source\PSoC5/I2C_1_MASTER.c **** * Summary:
  42:Generated_Source\PSoC5/I2C_1_MASTER.c **** *  Automatically writes an entire buffer of data to a slave device. Once the
  43:Generated_Source\PSoC5/I2C_1_MASTER.c **** *  data transfer is initiated by this function, further data transfer is handled
  44:Generated_Source\PSoC5/I2C_1_MASTER.c **** *  by the included ISR in byte by byte mode.
  45:Generated_Source\PSoC5/I2C_1_MASTER.c **** *
  46:Generated_Source\PSoC5/I2C_1_MASTER.c **** * Parameters:
  47:Generated_Source\PSoC5/I2C_1_MASTER.c **** *  slaveAddr: 7-bit slave address.
  48:Generated_Source\PSoC5/I2C_1_MASTER.c **** *  xferData:  Pointer to buffer of data to be sent.
  49:Generated_Source\PSoC5/I2C_1_MASTER.c **** *  cnt:       Size of buffer to send.
  50:Generated_Source\PSoC5/I2C_1_MASTER.c **** *  mode:      Transfer mode defines: start or restart condition generation at
  51:Generated_Source\PSoC5/I2C_1_MASTER.c **** *             begin of the transfer and complete the transfer or halt before
  52:Generated_Source\PSoC5/I2C_1_MASTER.c **** *             generating a stop.
  53:Generated_Source\PSoC5/I2C_1_MASTER.c **** *
  54:Generated_Source\PSoC5/I2C_1_MASTER.c **** * Return:
  55:Generated_Source\PSoC5/I2C_1_MASTER.c **** *  Status error - Zero means no errors.
  56:Generated_Source\PSoC5/I2C_1_MASTER.c **** *
  57:Generated_Source\PSoC5/I2C_1_MASTER.c **** * Side Effects:
  58:Generated_Source\PSoC5/I2C_1_MASTER.c **** *  The included ISR will start a transfer after a start or restart condition is
  59:Generated_Source\PSoC5/I2C_1_MASTER.c **** *  generated.
  60:Generated_Source\PSoC5/I2C_1_MASTER.c **** *
  61:Generated_Source\PSoC5/I2C_1_MASTER.c **** * Global variables:
  62:Generated_Source\PSoC5/I2C_1_MASTER.c **** *  I2C_1_mstrStatus  - The global variable used to store a current
  63:Generated_Source\PSoC5/I2C_1_MASTER.c **** *                                 status of the I2C Master.
  64:Generated_Source\PSoC5/I2C_1_MASTER.c **** *  I2C_1_state       - The global variable used to store a current
  65:Generated_Source\PSoC5/I2C_1_MASTER.c **** *                                 state of the software FSM.
  66:Generated_Source\PSoC5/I2C_1_MASTER.c **** *  I2C_1_mstrControl - The global variable used to control the master
  67:Generated_Source\PSoC5/I2C_1_MASTER.c **** *                                 end of a transaction with or without Stop
  68:Generated_Source\PSoC5/I2C_1_MASTER.c **** *                                 generation.
  69:Generated_Source\PSoC5/I2C_1_MASTER.c **** *  I2C_1_mstrWrBufPtr - The global variable used to store a pointer
  70:Generated_Source\PSoC5/I2C_1_MASTER.c **** *                                  to the master write buffer.
  71:Generated_Source\PSoC5/I2C_1_MASTER.c **** *  I2C_1_mstrWrBufIndex - The global variable used to store current
  72:Generated_Source\PSoC5/I2C_1_MASTER.c **** *                                    index within the master write buffer.
  73:Generated_Source\PSoC5/I2C_1_MASTER.c **** *  I2C_1_mstrWrBufSize - The global variable used to store a master
  74:Generated_Source\PSoC5/I2C_1_MASTER.c **** *                                   write buffer size.
  75:Generated_Source\PSoC5/I2C_1_MASTER.c **** *
  76:Generated_Source\PSoC5/I2C_1_MASTER.c **** * Reentrant:
  77:Generated_Source\PSoC5/I2C_1_MASTER.c **** *  No
  78:Generated_Source\PSoC5/I2C_1_MASTER.c **** *
  79:Generated_Source\PSoC5/I2C_1_MASTER.c **** *******************************************************************************/
  80:Generated_Source\PSoC5/I2C_1_MASTER.c **** uint8 I2C_1_MasterWriteBuf(uint8 slaveAddress, uint8 * wrData, uint8 cnt, uint8 mode)
  81:Generated_Source\PSoC5/I2C_1_MASTER.c ****       
  82:Generated_Source\PSoC5/I2C_1_MASTER.c **** {
  28              		.loc 1 82 0
  29              		.cfi_startproc
  30              		@ args = 0, pretend = 0, frame = 0
  31              		@ frame_needed = 0, uses_anonymous_args = 0
  32              		@ link register save eliminated.
ARM GAS  C:\Users\user\AppData\Local\Temp\ccAb76rg.s 			page 3


  33              	.LVL0:
  83:Generated_Source\PSoC5/I2C_1_MASTER.c ****     uint8 errStatus;
  84:Generated_Source\PSoC5/I2C_1_MASTER.c **** 
  85:Generated_Source\PSoC5/I2C_1_MASTER.c ****     errStatus = I2C_1_MSTR_NOT_READY;
  86:Generated_Source\PSoC5/I2C_1_MASTER.c **** 
  87:Generated_Source\PSoC5/I2C_1_MASTER.c ****     if(NULL != wrData)
  34              		.loc 1 87 0
  35 0000 0029     		cmp	r1, #0
  36 0002 48D0     		beq	.L7
  82:Generated_Source\PSoC5/I2C_1_MASTER.c ****     uint8 errStatus;
  37              		.loc 1 82 0
  38 0004 70B4     		push	{r4, r5, r6}
  39              		.cfi_def_cfa_offset 12
  40              		.cfi_offset 4, -12
  41              		.cfi_offset 5, -8
  42              		.cfi_offset 6, -4
  43 0006 0C46     		mov	r4, r1
  88:Generated_Source\PSoC5/I2C_1_MASTER.c ****     {
  89:Generated_Source\PSoC5/I2C_1_MASTER.c ****         /* Check I2C state to allow transfer: valid states are IDLE or HALT */
  90:Generated_Source\PSoC5/I2C_1_MASTER.c ****         if(I2C_1_SM_IDLE == I2C_1_state)
  44              		.loc 1 90 0
  45 0008 2649     		ldr	r1, .L12
  46              	.LVL1:
  47 000a 0978     		ldrb	r1, [r1]	@ zero_extendqisi2
  48 000c C9B2     		uxtb	r1, r1
  49 000e 1029     		cmp	r1, #16
  50 0010 06D1     		bne	.L3
  91:Generated_Source\PSoC5/I2C_1_MASTER.c ****         {
  92:Generated_Source\PSoC5/I2C_1_MASTER.c ****             /* Master is ready for transaction: check if bus is free */
  93:Generated_Source\PSoC5/I2C_1_MASTER.c ****             if(I2C_1_CHECK_BUS_FREE(I2C_1_MCSR_REG))
  51              		.loc 1 93 0
  52 0012 2549     		ldr	r1, .L12+4
  53 0014 0978     		ldrb	r1, [r1]	@ zero_extendqisi2
  54 0016 11F0080F 		tst	r1, #8
  55 001a 11D1     		bne	.L8
  94:Generated_Source\PSoC5/I2C_1_MASTER.c ****             {
  95:Generated_Source\PSoC5/I2C_1_MASTER.c ****                 errStatus = I2C_1_MSTR_NO_ERROR;
  56              		.loc 1 95 0
  57 001c 0021     		movs	r1, #0
  58 001e 12E0     		b	.L4
  59              	.L3:
  96:Generated_Source\PSoC5/I2C_1_MASTER.c ****             }
  97:Generated_Source\PSoC5/I2C_1_MASTER.c ****             else
  98:Generated_Source\PSoC5/I2C_1_MASTER.c ****             {
  99:Generated_Source\PSoC5/I2C_1_MASTER.c ****                 errStatus = I2C_1_MSTR_BUS_BUSY;
 100:Generated_Source\PSoC5/I2C_1_MASTER.c ****             }
 101:Generated_Source\PSoC5/I2C_1_MASTER.c ****         }
 102:Generated_Source\PSoC5/I2C_1_MASTER.c ****         else if(I2C_1_SM_MSTR_HALT == I2C_1_state)
  60              		.loc 1 102 0
  61 0020 2049     		ldr	r1, .L12
  62 0022 0978     		ldrb	r1, [r1]	@ zero_extendqisi2
  63 0024 C9B2     		uxtb	r1, r1
  64 0026 6029     		cmp	r1, #96
  65 0028 0CD1     		bne	.L9
  66              	.LVL2:
 103:Generated_Source\PSoC5/I2C_1_MASTER.c ****         {
 104:Generated_Source\PSoC5/I2C_1_MASTER.c ****             /* Master is ready and waiting for ReStart */
ARM GAS  C:\Users\user\AppData\Local\Temp\ccAb76rg.s 			page 4


 105:Generated_Source\PSoC5/I2C_1_MASTER.c ****             errStatus = I2C_1_MSTR_NO_ERROR;
 106:Generated_Source\PSoC5/I2C_1_MASTER.c **** 
 107:Generated_Source\PSoC5/I2C_1_MASTER.c ****             I2C_1_ClearPendingInt();
  67              		.loc 1 107 0
  68 002a 4FF40045 		mov	r5, #32768
  69 002e 1F49     		ldr	r1, .L12+8
  70 0030 0D60     		str	r5, [r1]
 108:Generated_Source\PSoC5/I2C_1_MASTER.c ****             I2C_1_mstrStatus &= (uint8) ~I2C_1_MSTAT_XFER_HALT;
  71              		.loc 1 108 0
  72 0032 1F4D     		ldr	r5, .L12+12
  73 0034 2978     		ldrb	r1, [r5]	@ zero_extendqisi2
  74 0036 01F0F701 		and	r1, r1, #247
  75 003a 2970     		strb	r1, [r5]
 105:Generated_Source\PSoC5/I2C_1_MASTER.c **** 
  76              		.loc 1 105 0
  77 003c 0021     		movs	r1, #0
  78 003e 02E0     		b	.L4
  79              	.LVL3:
  80              	.L8:
  99:Generated_Source\PSoC5/I2C_1_MASTER.c ****             }
  81              		.loc 1 99 0
  82 0040 0121     		movs	r1, #1
  83 0042 00E0     		b	.L4
  84              	.L9:
  85:Generated_Source\PSoC5/I2C_1_MASTER.c **** 
  85              		.loc 1 85 0
  86 0044 0221     		movs	r1, #2
  87              	.LVL4:
  88              	.L4:
 109:Generated_Source\PSoC5/I2C_1_MASTER.c ****         }
 110:Generated_Source\PSoC5/I2C_1_MASTER.c ****         else
 111:Generated_Source\PSoC5/I2C_1_MASTER.c ****         {
 112:Generated_Source\PSoC5/I2C_1_MASTER.c ****             /* errStatus = I2C_1_MSTR_NOT_READY was send before */
 113:Generated_Source\PSoC5/I2C_1_MASTER.c ****         }
 114:Generated_Source\PSoC5/I2C_1_MASTER.c **** 
 115:Generated_Source\PSoC5/I2C_1_MASTER.c ****         if(I2C_1_MSTR_NO_ERROR == errStatus)
  89              		.loc 1 115 0
  90 0046 49BB     		cbnz	r1, .L2
 116:Generated_Source\PSoC5/I2C_1_MASTER.c ****         {
 117:Generated_Source\PSoC5/I2C_1_MASTER.c ****             /* Set state to start write transaction */
 118:Generated_Source\PSoC5/I2C_1_MASTER.c ****             I2C_1_state = I2C_1_SM_MSTR_WR_ADDR;
  91              		.loc 1 118 0
  92 0048 4526     		movs	r6, #69
  93 004a 164D     		ldr	r5, .L12
  94 004c 2E70     		strb	r6, [r5]
 119:Generated_Source\PSoC5/I2C_1_MASTER.c **** 
 120:Generated_Source\PSoC5/I2C_1_MASTER.c ****             /* Prepare write buffer */
 121:Generated_Source\PSoC5/I2C_1_MASTER.c ****             I2C_1_mstrWrBufIndex = 0u;
  95              		.loc 1 121 0
  96 004e 0026     		movs	r6, #0
  97 0050 184D     		ldr	r5, .L12+16
  98 0052 2E70     		strb	r6, [r5]
 122:Generated_Source\PSoC5/I2C_1_MASTER.c ****             I2C_1_mstrWrBufSize  = cnt;
  99              		.loc 1 122 0
 100 0054 184D     		ldr	r5, .L12+20
 101 0056 2A70     		strb	r2, [r5]
 123:Generated_Source\PSoC5/I2C_1_MASTER.c ****             I2C_1_mstrWrBufPtr   = (volatile uint8 *) wrData;
ARM GAS  C:\Users\user\AppData\Local\Temp\ccAb76rg.s 			page 5


 102              		.loc 1 123 0
 103 0058 184A     		ldr	r2, .L12+24
 104              	.LVL5:
 105 005a 1460     		str	r4, [r2]
 124:Generated_Source\PSoC5/I2C_1_MASTER.c **** 
 125:Generated_Source\PSoC5/I2C_1_MASTER.c ****             /* Set end of transaction flag: Stop or Halt (following ReStart) */
 126:Generated_Source\PSoC5/I2C_1_MASTER.c ****             I2C_1_mstrControl = mode;
 106              		.loc 1 126 0
 107 005c 184A     		ldr	r2, .L12+28
 108 005e 1370     		strb	r3, [r2]
 109              	.LVL6:
 127:Generated_Source\PSoC5/I2C_1_MASTER.c **** 
 128:Generated_Source\PSoC5/I2C_1_MASTER.c ****             /* Clear write status history */
 129:Generated_Source\PSoC5/I2C_1_MASTER.c ****             I2C_1_mstrStatus &= (uint8) ~I2C_1_MSTAT_WR_CMPLT;
 110              		.loc 1 129 0
 111 0060 134C     		ldr	r4, .L12+12
 112              	.LVL7:
 113 0062 2278     		ldrb	r2, [r4]	@ zero_extendqisi2
 114 0064 02F0FD02 		and	r2, r2, #253
 115 0068 2270     		strb	r2, [r4]
 130:Generated_Source\PSoC5/I2C_1_MASTER.c **** 
 131:Generated_Source\PSoC5/I2C_1_MASTER.c ****             /* Hardware actions: write address and generate Start or ReStart */
 132:Generated_Source\PSoC5/I2C_1_MASTER.c ****             I2C_1_DATA_REG = (uint8) (slaveAddress << I2C_1_SLAVE_ADDR_SHIFT);
 116              		.loc 1 132 0
 117 006a 4200     		lsls	r2, r0, #1
 118 006c D2B2     		uxtb	r2, r2
 119 006e 1548     		ldr	r0, .L12+32
 120              	.LVL8:
 121 0070 0270     		strb	r2, [r0]
 122              	.LVL9:
 133:Generated_Source\PSoC5/I2C_1_MASTER.c **** 
 134:Generated_Source\PSoC5/I2C_1_MASTER.c ****             if(I2C_1_CHECK_RESTART(mode))
 123              		.loc 1 134 0
 124 0072 13F0010F 		tst	r3, #1
 125 0076 06D0     		beq	.L5
 135:Generated_Source\PSoC5/I2C_1_MASTER.c ****             {
 136:Generated_Source\PSoC5/I2C_1_MASTER.c ****                 I2C_1_GENERATE_RESTART;
 126              		.loc 1 136 0
 127 0078 1222     		movs	r2, #18
 128 007a 0B4B     		ldr	r3, .L12+4
 129              	.LVL10:
 130 007c 1A70     		strb	r2, [r3]
 131 007e 0422     		movs	r2, #4
 132 0080 023B     		subs	r3, r3, #2
 133 0082 1A70     		strb	r2, [r3]
 134 0084 02E0     		b	.L6
 135              	.LVL11:
 136              	.L5:
 137:Generated_Source\PSoC5/I2C_1_MASTER.c ****             }
 138:Generated_Source\PSoC5/I2C_1_MASTER.c ****             else
 139:Generated_Source\PSoC5/I2C_1_MASTER.c ****             {
 140:Generated_Source\PSoC5/I2C_1_MASTER.c ****                 I2C_1_GENERATE_START;
 137              		.loc 1 140 0
 138 0086 0122     		movs	r2, #1
 139 0088 074B     		ldr	r3, .L12+4
 140              	.LVL12:
 141 008a 1A70     		strb	r2, [r3]
ARM GAS  C:\Users\user\AppData\Local\Temp\ccAb76rg.s 			page 6


 142              	.L6:
 141:Generated_Source\PSoC5/I2C_1_MASTER.c ****             }
 142:Generated_Source\PSoC5/I2C_1_MASTER.c **** 
 143:Generated_Source\PSoC5/I2C_1_MASTER.c ****             /* Enable interrupt to complete transfer */
 144:Generated_Source\PSoC5/I2C_1_MASTER.c ****             I2C_1_EnableInt();
 143              		.loc 1 144 0
 144 008c 4FF40042 		mov	r2, #32768
 145 0090 0D4B     		ldr	r3, .L12+36
 146 0092 1A60     		str	r2, [r3]
 147 0094 02E0     		b	.L2
 148              	.LVL13:
 149              	.L7:
 150              		.cfi_def_cfa_offset 0
 151              		.cfi_restore 4
 152              		.cfi_restore 5
 153              		.cfi_restore 6
  85:Generated_Source\PSoC5/I2C_1_MASTER.c **** 
 154              		.loc 1 85 0
 155 0096 0221     		movs	r1, #2
 156              	.LVL14:
 145:Generated_Source\PSoC5/I2C_1_MASTER.c ****         }
 146:Generated_Source\PSoC5/I2C_1_MASTER.c ****     }
 147:Generated_Source\PSoC5/I2C_1_MASTER.c **** 
 148:Generated_Source\PSoC5/I2C_1_MASTER.c ****     return(errStatus);
 149:Generated_Source\PSoC5/I2C_1_MASTER.c **** }
 157              		.loc 1 149 0
 158 0098 0846     		mov	r0, r1
 159              	.LVL15:
 160 009a 7047     		bx	lr
 161              	.LVL16:
 162              	.L2:
 163              		.cfi_def_cfa_offset 12
 164              		.cfi_offset 4, -12
 165              		.cfi_offset 5, -8
 166              		.cfi_offset 6, -4
 167 009c 0846     		mov	r0, r1
 168 009e 70BC     		pop	{r4, r5, r6}
 169              		.cfi_restore 6
 170              		.cfi_restore 5
 171              		.cfi_restore 4
 172              		.cfi_def_cfa_offset 0
 173 00a0 7047     		bx	lr
 174              	.L13:
 175 00a2 00BF     		.align	2
 176              	.L12:
 177 00a4 00000000 		.word	I2C_1_state
 178 00a8 D9490040 		.word	1073760729
 179 00ac 80E200E0 		.word	-536812928
 180 00b0 00000000 		.word	I2C_1_mstrStatus
 181 00b4 00000000 		.word	I2C_1_mstrWrBufIndex
 182 00b8 00000000 		.word	I2C_1_mstrWrBufSize
 183 00bc 00000000 		.word	I2C_1_mstrWrBufPtr
 184 00c0 00000000 		.word	I2C_1_mstrControl
 185 00c4 D8490040 		.word	1073760728
 186 00c8 00E100E0 		.word	-536813312
 187              		.cfi_endproc
 188              	.LFE0:
ARM GAS  C:\Users\user\AppData\Local\Temp\ccAb76rg.s 			page 7


 189              		.size	I2C_1_MasterWriteBuf, .-I2C_1_MasterWriteBuf
 190              		.section	.text.I2C_1_MasterReadBuf,"ax",%progbits
 191              		.align	2
 192              		.global	I2C_1_MasterReadBuf
 193              		.thumb
 194              		.thumb_func
 195              		.type	I2C_1_MasterReadBuf, %function
 196              	I2C_1_MasterReadBuf:
 197              	.LFB1:
 150:Generated_Source\PSoC5/I2C_1_MASTER.c **** 
 151:Generated_Source\PSoC5/I2C_1_MASTER.c **** 
 152:Generated_Source\PSoC5/I2C_1_MASTER.c **** /*******************************************************************************
 153:Generated_Source\PSoC5/I2C_1_MASTER.c **** * Function Name: I2C_1_MasterReadBuf
 154:Generated_Source\PSoC5/I2C_1_MASTER.c **** ********************************************************************************
 155:Generated_Source\PSoC5/I2C_1_MASTER.c **** *
 156:Generated_Source\PSoC5/I2C_1_MASTER.c **** * Summary:
 157:Generated_Source\PSoC5/I2C_1_MASTER.c **** *  Automatically writes an entire buffer of data to a slave device. Once the
 158:Generated_Source\PSoC5/I2C_1_MASTER.c **** *  data transfer is initiated by this function, further data transfer is handled
 159:Generated_Source\PSoC5/I2C_1_MASTER.c **** *  by the included ISR in byte by byte mode.
 160:Generated_Source\PSoC5/I2C_1_MASTER.c **** *
 161:Generated_Source\PSoC5/I2C_1_MASTER.c **** * Parameters:
 162:Generated_Source\PSoC5/I2C_1_MASTER.c **** *  slaveAddr: 7-bit slave address.
 163:Generated_Source\PSoC5/I2C_1_MASTER.c **** *  xferData:  Pointer to buffer where to put data from slave.
 164:Generated_Source\PSoC5/I2C_1_MASTER.c **** *  cnt:       Size of buffer to read.
 165:Generated_Source\PSoC5/I2C_1_MASTER.c **** *  mode:      Transfer mode defines: start or restart condition generation at
 166:Generated_Source\PSoC5/I2C_1_MASTER.c **** *             begin of the transfer and complete the transfer or halt before
 167:Generated_Source\PSoC5/I2C_1_MASTER.c **** *             generating a stop.
 168:Generated_Source\PSoC5/I2C_1_MASTER.c **** *
 169:Generated_Source\PSoC5/I2C_1_MASTER.c **** * Return:
 170:Generated_Source\PSoC5/I2C_1_MASTER.c **** *  Status error - Zero means no errors.
 171:Generated_Source\PSoC5/I2C_1_MASTER.c **** *
 172:Generated_Source\PSoC5/I2C_1_MASTER.c **** * Side Effects:
 173:Generated_Source\PSoC5/I2C_1_MASTER.c **** *  The included ISR will start a transfer after start or restart condition is
 174:Generated_Source\PSoC5/I2C_1_MASTER.c **** *  generated.
 175:Generated_Source\PSoC5/I2C_1_MASTER.c **** *
 176:Generated_Source\PSoC5/I2C_1_MASTER.c **** * Global variables:
 177:Generated_Source\PSoC5/I2C_1_MASTER.c **** *  I2C_1_mstrStatus  - The global variable used to store a current
 178:Generated_Source\PSoC5/I2C_1_MASTER.c **** *                                 status of the I2C Master.
 179:Generated_Source\PSoC5/I2C_1_MASTER.c **** *  I2C_1_state       - The global variable used to store a current
 180:Generated_Source\PSoC5/I2C_1_MASTER.c **** *                                 state of the software FSM.
 181:Generated_Source\PSoC5/I2C_1_MASTER.c **** *  I2C_1_mstrControl - The global variable used to control the master
 182:Generated_Source\PSoC5/I2C_1_MASTER.c **** *                                 end of a transaction with or without
 183:Generated_Source\PSoC5/I2C_1_MASTER.c **** *                                 Stop generation.
 184:Generated_Source\PSoC5/I2C_1_MASTER.c **** *  I2C_1_mstrRdBufPtr - The global variable used to store a pointer
 185:Generated_Source\PSoC5/I2C_1_MASTER.c **** *                                  to the master write buffer.
 186:Generated_Source\PSoC5/I2C_1_MASTER.c **** *  I2C_1_mstrRdBufIndex - The global variable  used to store a
 187:Generated_Source\PSoC5/I2C_1_MASTER.c **** *                                    current index within the master
 188:Generated_Source\PSoC5/I2C_1_MASTER.c **** *                                    write buffer.
 189:Generated_Source\PSoC5/I2C_1_MASTER.c **** *  I2C_1_mstrRdBufSize - The global variable used to store a master
 190:Generated_Source\PSoC5/I2C_1_MASTER.c **** *                                   write buffer size.
 191:Generated_Source\PSoC5/I2C_1_MASTER.c **** *
 192:Generated_Source\PSoC5/I2C_1_MASTER.c **** * Reentrant:
 193:Generated_Source\PSoC5/I2C_1_MASTER.c **** *  No.
 194:Generated_Source\PSoC5/I2C_1_MASTER.c **** *
 195:Generated_Source\PSoC5/I2C_1_MASTER.c **** *******************************************************************************/
 196:Generated_Source\PSoC5/I2C_1_MASTER.c **** uint8 I2C_1_MasterReadBuf(uint8 slaveAddress, uint8 * rdData, uint8 cnt, uint8 mode)
 197:Generated_Source\PSoC5/I2C_1_MASTER.c ****       
ARM GAS  C:\Users\user\AppData\Local\Temp\ccAb76rg.s 			page 8


 198:Generated_Source\PSoC5/I2C_1_MASTER.c **** {
 198              		.loc 1 198 0
 199              		.cfi_startproc
 200              		@ args = 0, pretend = 0, frame = 0
 201              		@ frame_needed = 0, uses_anonymous_args = 0
 202              		@ link register save eliminated.
 203              	.LVL17:
 199:Generated_Source\PSoC5/I2C_1_MASTER.c ****     uint8 errStatus;
 200:Generated_Source\PSoC5/I2C_1_MASTER.c **** 
 201:Generated_Source\PSoC5/I2C_1_MASTER.c ****     errStatus = I2C_1_MSTR_NOT_READY;
 202:Generated_Source\PSoC5/I2C_1_MASTER.c **** 
 203:Generated_Source\PSoC5/I2C_1_MASTER.c ****     if(NULL != rdData)
 204              		.loc 1 203 0
 205 0000 0029     		cmp	r1, #0
 206 0002 4AD0     		beq	.L20
 198:Generated_Source\PSoC5/I2C_1_MASTER.c ****     uint8 errStatus;
 207              		.loc 1 198 0
 208 0004 70B4     		push	{r4, r5, r6}
 209              		.cfi_def_cfa_offset 12
 210              		.cfi_offset 4, -12
 211              		.cfi_offset 5, -8
 212              		.cfi_offset 6, -4
 213 0006 0C46     		mov	r4, r1
 204:Generated_Source\PSoC5/I2C_1_MASTER.c ****     {
 205:Generated_Source\PSoC5/I2C_1_MASTER.c ****         /* Check I2C state to allow transfer: valid states are IDLE or HALT */
 206:Generated_Source\PSoC5/I2C_1_MASTER.c ****         if(I2C_1_SM_IDLE == I2C_1_state)
 214              		.loc 1 206 0
 215 0008 2749     		ldr	r1, .L25
 216              	.LVL18:
 217 000a 0978     		ldrb	r1, [r1]	@ zero_extendqisi2
 218 000c C9B2     		uxtb	r1, r1
 219 000e 1029     		cmp	r1, #16
 220 0010 06D1     		bne	.L16
 207:Generated_Source\PSoC5/I2C_1_MASTER.c ****         {
 208:Generated_Source\PSoC5/I2C_1_MASTER.c ****             /* Master is ready to transaction: check if bus is free */
 209:Generated_Source\PSoC5/I2C_1_MASTER.c ****             if(I2C_1_CHECK_BUS_FREE(I2C_1_MCSR_REG))
 221              		.loc 1 209 0
 222 0012 2649     		ldr	r1, .L25+4
 223 0014 0978     		ldrb	r1, [r1]	@ zero_extendqisi2
 224 0016 11F0080F 		tst	r1, #8
 225 001a 11D1     		bne	.L21
 210:Generated_Source\PSoC5/I2C_1_MASTER.c ****             {
 211:Generated_Source\PSoC5/I2C_1_MASTER.c ****                 errStatus = I2C_1_MSTR_NO_ERROR;
 226              		.loc 1 211 0
 227 001c 0021     		movs	r1, #0
 228 001e 12E0     		b	.L17
 229              	.L16:
 212:Generated_Source\PSoC5/I2C_1_MASTER.c ****             }
 213:Generated_Source\PSoC5/I2C_1_MASTER.c ****             else
 214:Generated_Source\PSoC5/I2C_1_MASTER.c ****             {
 215:Generated_Source\PSoC5/I2C_1_MASTER.c ****                 errStatus = I2C_1_MSTR_BUS_BUSY;
 216:Generated_Source\PSoC5/I2C_1_MASTER.c ****             }
 217:Generated_Source\PSoC5/I2C_1_MASTER.c ****         }
 218:Generated_Source\PSoC5/I2C_1_MASTER.c ****         else if(I2C_1_SM_MSTR_HALT == I2C_1_state)
 230              		.loc 1 218 0
 231 0020 2149     		ldr	r1, .L25
 232 0022 0978     		ldrb	r1, [r1]	@ zero_extendqisi2
ARM GAS  C:\Users\user\AppData\Local\Temp\ccAb76rg.s 			page 9


 233 0024 C9B2     		uxtb	r1, r1
 234 0026 6029     		cmp	r1, #96
 235 0028 0CD1     		bne	.L22
 236              	.LVL19:
 219:Generated_Source\PSoC5/I2C_1_MASTER.c ****         {
 220:Generated_Source\PSoC5/I2C_1_MASTER.c ****             /* Master is ready and waiting for ReStart */
 221:Generated_Source\PSoC5/I2C_1_MASTER.c ****             errStatus = I2C_1_MSTR_NO_ERROR;
 222:Generated_Source\PSoC5/I2C_1_MASTER.c **** 
 223:Generated_Source\PSoC5/I2C_1_MASTER.c ****             I2C_1_ClearPendingInt();
 237              		.loc 1 223 0
 238 002a 4FF40045 		mov	r5, #32768
 239 002e 2049     		ldr	r1, .L25+8
 240 0030 0D60     		str	r5, [r1]
 224:Generated_Source\PSoC5/I2C_1_MASTER.c ****             I2C_1_mstrStatus &= (uint8) ~I2C_1_MSTAT_XFER_HALT;
 241              		.loc 1 224 0
 242 0032 204D     		ldr	r5, .L25+12
 243 0034 2978     		ldrb	r1, [r5]	@ zero_extendqisi2
 244 0036 01F0F701 		and	r1, r1, #247
 245 003a 2970     		strb	r1, [r5]
 221:Generated_Source\PSoC5/I2C_1_MASTER.c **** 
 246              		.loc 1 221 0
 247 003c 0021     		movs	r1, #0
 248 003e 02E0     		b	.L17
 249              	.LVL20:
 250              	.L21:
 215:Generated_Source\PSoC5/I2C_1_MASTER.c ****             }
 251              		.loc 1 215 0
 252 0040 0121     		movs	r1, #1
 253 0042 00E0     		b	.L17
 254              	.L22:
 201:Generated_Source\PSoC5/I2C_1_MASTER.c **** 
 255              		.loc 1 201 0
 256 0044 0221     		movs	r1, #2
 257              	.LVL21:
 258              	.L17:
 225:Generated_Source\PSoC5/I2C_1_MASTER.c ****         }
 226:Generated_Source\PSoC5/I2C_1_MASTER.c ****         else
 227:Generated_Source\PSoC5/I2C_1_MASTER.c ****         {
 228:Generated_Source\PSoC5/I2C_1_MASTER.c ****             /* errStatus = I2C_1_MSTR_NOT_READY was set before */
 229:Generated_Source\PSoC5/I2C_1_MASTER.c ****         }
 230:Generated_Source\PSoC5/I2C_1_MASTER.c **** 
 231:Generated_Source\PSoC5/I2C_1_MASTER.c ****         if(I2C_1_MSTR_NO_ERROR == errStatus)
 259              		.loc 1 231 0
 260 0046 59BB     		cbnz	r1, .L15
 232:Generated_Source\PSoC5/I2C_1_MASTER.c ****         {
 233:Generated_Source\PSoC5/I2C_1_MASTER.c ****             /* Set state to start write transaction */
 234:Generated_Source\PSoC5/I2C_1_MASTER.c ****             I2C_1_state = I2C_1_SM_MSTR_RD_ADDR;
 261              		.loc 1 234 0
 262 0048 4926     		movs	r6, #73
 263 004a 174D     		ldr	r5, .L25
 264 004c 2E70     		strb	r6, [r5]
 235:Generated_Source\PSoC5/I2C_1_MASTER.c **** 
 236:Generated_Source\PSoC5/I2C_1_MASTER.c ****             /* Prepare read buffer */
 237:Generated_Source\PSoC5/I2C_1_MASTER.c ****             I2C_1_mstrRdBufIndex  = 0u;
 265              		.loc 1 237 0
 266 004e 0026     		movs	r6, #0
 267 0050 194D     		ldr	r5, .L25+16
ARM GAS  C:\Users\user\AppData\Local\Temp\ccAb76rg.s 			page 10


 268 0052 2E70     		strb	r6, [r5]
 238:Generated_Source\PSoC5/I2C_1_MASTER.c ****             I2C_1_mstrRdBufSize   = cnt;
 269              		.loc 1 238 0
 270 0054 194D     		ldr	r5, .L25+20
 271 0056 2A70     		strb	r2, [r5]
 239:Generated_Source\PSoC5/I2C_1_MASTER.c ****             I2C_1_mstrRdBufPtr    = (volatile uint8 *) rdData;
 272              		.loc 1 239 0
 273 0058 194A     		ldr	r2, .L25+24
 274              	.LVL22:
 275 005a 1460     		str	r4, [r2]
 240:Generated_Source\PSoC5/I2C_1_MASTER.c **** 
 241:Generated_Source\PSoC5/I2C_1_MASTER.c ****             /* Set end of transaction flag: Stop or Halt (following ReStart) */
 242:Generated_Source\PSoC5/I2C_1_MASTER.c ****             I2C_1_mstrControl = mode;
 276              		.loc 1 242 0
 277 005c 194A     		ldr	r2, .L25+28
 278 005e 1370     		strb	r3, [r2]
 279              	.LVL23:
 243:Generated_Source\PSoC5/I2C_1_MASTER.c **** 
 244:Generated_Source\PSoC5/I2C_1_MASTER.c ****             /* Clear read status history */
 245:Generated_Source\PSoC5/I2C_1_MASTER.c ****             I2C_1_mstrStatus &= (uint8) ~I2C_1_MSTAT_RD_CMPLT;
 280              		.loc 1 245 0
 281 0060 144C     		ldr	r4, .L25+12
 282              	.LVL24:
 283 0062 2278     		ldrb	r2, [r4]	@ zero_extendqisi2
 284 0064 02F0FE02 		and	r2, r2, #254
 285 0068 2270     		strb	r2, [r4]
 246:Generated_Source\PSoC5/I2C_1_MASTER.c **** 
 247:Generated_Source\PSoC5/I2C_1_MASTER.c ****             /* Hardware actions: write address and generate Start or ReStart */
 248:Generated_Source\PSoC5/I2C_1_MASTER.c ****             I2C_1_DATA_REG = ((uint8) (slaveAddress << I2C_1_SLAVE_ADDR_SHIFT) |
 286              		.loc 1 248 0
 287 006a 4200     		lsls	r2, r0, #1
 288 006c D2B2     		uxtb	r2, r2
 289 006e 42F00102 		orr	r2, r2, #1
 290 0072 1548     		ldr	r0, .L25+32
 291              	.LVL25:
 292 0074 0270     		strb	r2, [r0]
 293              	.LVL26:
 249:Generated_Source\PSoC5/I2C_1_MASTER.c ****                                                   I2C_1_READ_FLAG);
 250:Generated_Source\PSoC5/I2C_1_MASTER.c **** 
 251:Generated_Source\PSoC5/I2C_1_MASTER.c ****             if(I2C_1_CHECK_RESTART(mode))
 294              		.loc 1 251 0
 295 0076 13F0010F 		tst	r3, #1
 296 007a 06D0     		beq	.L18
 252:Generated_Source\PSoC5/I2C_1_MASTER.c ****             {
 253:Generated_Source\PSoC5/I2C_1_MASTER.c ****                 I2C_1_GENERATE_RESTART;
 297              		.loc 1 253 0
 298 007c 1222     		movs	r2, #18
 299 007e 0B4B     		ldr	r3, .L25+4
 300              	.LVL27:
 301 0080 1A70     		strb	r2, [r3]
 302 0082 0422     		movs	r2, #4
 303 0084 023B     		subs	r3, r3, #2
 304 0086 1A70     		strb	r2, [r3]
 305 0088 02E0     		b	.L19
 306              	.LVL28:
 307              	.L18:
 254:Generated_Source\PSoC5/I2C_1_MASTER.c ****             }
ARM GAS  C:\Users\user\AppData\Local\Temp\ccAb76rg.s 			page 11


 255:Generated_Source\PSoC5/I2C_1_MASTER.c ****             else
 256:Generated_Source\PSoC5/I2C_1_MASTER.c ****             {
 257:Generated_Source\PSoC5/I2C_1_MASTER.c ****                 I2C_1_GENERATE_START;
 308              		.loc 1 257 0
 309 008a 0122     		movs	r2, #1
 310 008c 074B     		ldr	r3, .L25+4
 311              	.LVL29:
 312 008e 1A70     		strb	r2, [r3]
 313              	.L19:
 258:Generated_Source\PSoC5/I2C_1_MASTER.c ****             }
 259:Generated_Source\PSoC5/I2C_1_MASTER.c **** 
 260:Generated_Source\PSoC5/I2C_1_MASTER.c ****             /* Enable interrupt to complete transfer */
 261:Generated_Source\PSoC5/I2C_1_MASTER.c ****             I2C_1_EnableInt();
 314              		.loc 1 261 0
 315 0090 4FF40042 		mov	r2, #32768
 316 0094 0D4B     		ldr	r3, .L25+36
 317 0096 1A60     		str	r2, [r3]
 318 0098 02E0     		b	.L15
 319              	.LVL30:
 320              	.L20:
 321              		.cfi_def_cfa_offset 0
 322              		.cfi_restore 4
 323              		.cfi_restore 5
 324              		.cfi_restore 6
 201:Generated_Source\PSoC5/I2C_1_MASTER.c **** 
 325              		.loc 1 201 0
 326 009a 0221     		movs	r1, #2
 327              	.LVL31:
 262:Generated_Source\PSoC5/I2C_1_MASTER.c ****         }
 263:Generated_Source\PSoC5/I2C_1_MASTER.c ****     }
 264:Generated_Source\PSoC5/I2C_1_MASTER.c **** 
 265:Generated_Source\PSoC5/I2C_1_MASTER.c ****     return(errStatus);
 266:Generated_Source\PSoC5/I2C_1_MASTER.c **** }
 328              		.loc 1 266 0
 329 009c 0846     		mov	r0, r1
 330              	.LVL32:
 331 009e 7047     		bx	lr
 332              	.LVL33:
 333              	.L15:
 334              		.cfi_def_cfa_offset 12
 335              		.cfi_offset 4, -12
 336              		.cfi_offset 5, -8
 337              		.cfi_offset 6, -4
 338 00a0 0846     		mov	r0, r1
 339 00a2 70BC     		pop	{r4, r5, r6}
 340              		.cfi_restore 6
 341              		.cfi_restore 5
 342              		.cfi_restore 4
 343              		.cfi_def_cfa_offset 0
 344 00a4 7047     		bx	lr
 345              	.L26:
 346 00a6 00BF     		.align	2
 347              	.L25:
 348 00a8 00000000 		.word	I2C_1_state
 349 00ac D9490040 		.word	1073760729
 350 00b0 80E200E0 		.word	-536812928
 351 00b4 00000000 		.word	I2C_1_mstrStatus
ARM GAS  C:\Users\user\AppData\Local\Temp\ccAb76rg.s 			page 12


 352 00b8 00000000 		.word	I2C_1_mstrRdBufIndex
 353 00bc 00000000 		.word	I2C_1_mstrRdBufSize
 354 00c0 00000000 		.word	I2C_1_mstrRdBufPtr
 355 00c4 00000000 		.word	I2C_1_mstrControl
 356 00c8 D8490040 		.word	1073760728
 357 00cc 00E100E0 		.word	-536813312
 358              		.cfi_endproc
 359              	.LFE1:
 360              		.size	I2C_1_MasterReadBuf, .-I2C_1_MasterReadBuf
 361              		.section	.text.I2C_1_MasterSendStart,"ax",%progbits
 362              		.align	2
 363              		.global	I2C_1_MasterSendStart
 364              		.thumb
 365              		.thumb_func
 366              		.type	I2C_1_MasterSendStart, %function
 367              	I2C_1_MasterSendStart:
 368              	.LFB2:
 267:Generated_Source\PSoC5/I2C_1_MASTER.c **** 
 268:Generated_Source\PSoC5/I2C_1_MASTER.c **** 
 269:Generated_Source\PSoC5/I2C_1_MASTER.c **** /*******************************************************************************
 270:Generated_Source\PSoC5/I2C_1_MASTER.c **** * Function Name: I2C_1_MasterSendStart
 271:Generated_Source\PSoC5/I2C_1_MASTER.c **** ********************************************************************************
 272:Generated_Source\PSoC5/I2C_1_MASTER.c **** *
 273:Generated_Source\PSoC5/I2C_1_MASTER.c **** * Summary:
 274:Generated_Source\PSoC5/I2C_1_MASTER.c **** *  Generates Start condition and sends slave address with read/write bit.
 275:Generated_Source\PSoC5/I2C_1_MASTER.c **** *
 276:Generated_Source\PSoC5/I2C_1_MASTER.c **** * Parameters:
 277:Generated_Source\PSoC5/I2C_1_MASTER.c **** *  slaveAddress:  7-bit slave address.
 278:Generated_Source\PSoC5/I2C_1_MASTER.c **** *  R_nW:          Zero, send write command, non-zero send read command.
 279:Generated_Source\PSoC5/I2C_1_MASTER.c **** *
 280:Generated_Source\PSoC5/I2C_1_MASTER.c **** * Return:
 281:Generated_Source\PSoC5/I2C_1_MASTER.c **** *  Status error - Zero means no errors.
 282:Generated_Source\PSoC5/I2C_1_MASTER.c **** *
 283:Generated_Source\PSoC5/I2C_1_MASTER.c **** * Side Effects:
 284:Generated_Source\PSoC5/I2C_1_MASTER.c **** *  This function is entered without a "byte complete" bit set in the I2C_CSR
 285:Generated_Source\PSoC5/I2C_1_MASTER.c **** *  register. It does not exit until it is set.
 286:Generated_Source\PSoC5/I2C_1_MASTER.c **** *
 287:Generated_Source\PSoC5/I2C_1_MASTER.c **** * Global variables:
 288:Generated_Source\PSoC5/I2C_1_MASTER.c **** *  I2C_1_state - The global variable used to store a current state of
 289:Generated_Source\PSoC5/I2C_1_MASTER.c **** *                           the software FSM.
 290:Generated_Source\PSoC5/I2C_1_MASTER.c **** *
 291:Generated_Source\PSoC5/I2C_1_MASTER.c **** * Reentrant:
 292:Generated_Source\PSoC5/I2C_1_MASTER.c **** *  No.
 293:Generated_Source\PSoC5/I2C_1_MASTER.c **** *
 294:Generated_Source\PSoC5/I2C_1_MASTER.c **** *******************************************************************************/
 295:Generated_Source\PSoC5/I2C_1_MASTER.c **** uint8 I2C_1_MasterSendStart(uint8 slaveAddress, uint8 R_nW)
 296:Generated_Source\PSoC5/I2C_1_MASTER.c ****       
 297:Generated_Source\PSoC5/I2C_1_MASTER.c **** {
 369              		.loc 1 297 0
 370              		.cfi_startproc
 371              		@ args = 0, pretend = 0, frame = 0
 372              		@ frame_needed = 0, uses_anonymous_args = 0
 373              		@ link register save eliminated.
 374              	.LVL34:
 298:Generated_Source\PSoC5/I2C_1_MASTER.c ****     uint8 errStatus;
 299:Generated_Source\PSoC5/I2C_1_MASTER.c **** 
 300:Generated_Source\PSoC5/I2C_1_MASTER.c ****     errStatus = I2C_1_MSTR_NOT_READY;
ARM GAS  C:\Users\user\AppData\Local\Temp\ccAb76rg.s 			page 13


 301:Generated_Source\PSoC5/I2C_1_MASTER.c **** 
 302:Generated_Source\PSoC5/I2C_1_MASTER.c ****     /* If IDLE, check if bus is free */
 303:Generated_Source\PSoC5/I2C_1_MASTER.c ****     if(I2C_1_SM_IDLE == I2C_1_state)
 375              		.loc 1 303 0
 376 0000 2A4B     		ldr	r3, .L37
 377 0002 1B78     		ldrb	r3, [r3]	@ zero_extendqisi2
 378 0004 DBB2     		uxtb	r3, r3
 379 0006 102B     		cmp	r3, #16
 380 0008 4AD1     		bne	.L34
 304:Generated_Source\PSoC5/I2C_1_MASTER.c ****     {
 305:Generated_Source\PSoC5/I2C_1_MASTER.c ****         /* If bus is free, generate Start condition */
 306:Generated_Source\PSoC5/I2C_1_MASTER.c ****         if(I2C_1_CHECK_BUS_FREE(I2C_1_MCSR_REG))
 381              		.loc 1 306 0
 382 000a 294B     		ldr	r3, .L37+4
 383 000c 1B78     		ldrb	r3, [r3]	@ zero_extendqisi2
 384 000e 13F0080F 		tst	r3, #8
 385 0012 47D1     		bne	.L35
 307:Generated_Source\PSoC5/I2C_1_MASTER.c ****         {
 308:Generated_Source\PSoC5/I2C_1_MASTER.c ****             /* Disable interrupt for manual master operation */
 309:Generated_Source\PSoC5/I2C_1_MASTER.c ****             I2C_1_DisableInt();
 386              		.loc 1 309 0
 387 0014 4FF40042 		mov	r2, #32768
 388 0018 264B     		ldr	r3, .L37+8
 389 001a 1A60     		str	r2, [r3]
 310:Generated_Source\PSoC5/I2C_1_MASTER.c **** 
 311:Generated_Source\PSoC5/I2C_1_MASTER.c ****             /* Set address and read/write flag */
 312:Generated_Source\PSoC5/I2C_1_MASTER.c ****             slaveAddress = (uint8) (slaveAddress << I2C_1_SLAVE_ADDR_SHIFT);
 390              		.loc 1 312 0
 391 001c 4000     		lsls	r0, r0, #1
 392              	.LVL35:
 393 001e C0B2     		uxtb	r0, r0
 394              	.LVL36:
 313:Generated_Source\PSoC5/I2C_1_MASTER.c ****             if(0u != R_nW)
 395              		.loc 1 313 0
 396 0020 29B1     		cbz	r1, .L29
 314:Generated_Source\PSoC5/I2C_1_MASTER.c ****             {
 315:Generated_Source\PSoC5/I2C_1_MASTER.c ****                 slaveAddress |= I2C_1_READ_FLAG;
 397              		.loc 1 315 0
 398 0022 40F00100 		orr	r0, r0, #1
 399              	.LVL37:
 316:Generated_Source\PSoC5/I2C_1_MASTER.c ****                 I2C_1_state = I2C_1_SM_MSTR_RD_ADDR;
 400              		.loc 1 316 0
 401 0026 4922     		movs	r2, #73
 402 0028 204B     		ldr	r3, .L37
 403 002a 1A70     		strb	r2, [r3]
 404 002c 02E0     		b	.L30
 405              	.L29:
 317:Generated_Source\PSoC5/I2C_1_MASTER.c ****             }
 318:Generated_Source\PSoC5/I2C_1_MASTER.c ****             else
 319:Generated_Source\PSoC5/I2C_1_MASTER.c ****             {
 320:Generated_Source\PSoC5/I2C_1_MASTER.c ****                 I2C_1_state = I2C_1_SM_MSTR_WR_ADDR;
 406              		.loc 1 320 0
 407 002e 4522     		movs	r2, #69
 408 0030 1E4B     		ldr	r3, .L37
 409 0032 1A70     		strb	r2, [r3]
 410              	.L30:
 321:Generated_Source\PSoC5/I2C_1_MASTER.c ****             }
ARM GAS  C:\Users\user\AppData\Local\Temp\ccAb76rg.s 			page 14


 322:Generated_Source\PSoC5/I2C_1_MASTER.c **** 
 323:Generated_Source\PSoC5/I2C_1_MASTER.c ****             /* Hardware actions: write address and generate Start */
 324:Generated_Source\PSoC5/I2C_1_MASTER.c ****             I2C_1_DATA_REG = slaveAddress;
 411              		.loc 1 324 0
 412 0034 204B     		ldr	r3, .L37+12
 413 0036 1870     		strb	r0, [r3]
 325:Generated_Source\PSoC5/I2C_1_MASTER.c ****             I2C_1_GENERATE_START_MANUAL;
 414              		.loc 1 325 0
 415 0038 0122     		movs	r2, #1
 416 003a 0133     		adds	r3, r3, #1
 417 003c 1A70     		strb	r2, [r3]
 418              	.L31:
 326:Generated_Source\PSoC5/I2C_1_MASTER.c **** 
 327:Generated_Source\PSoC5/I2C_1_MASTER.c ****             /* Wait until address is transferred */
 328:Generated_Source\PSoC5/I2C_1_MASTER.c ****             while(I2C_1_WAIT_BYTE_COMPLETE(I2C_1_CSR_REG))
 419              		.loc 1 328 0 discriminator 1
 420 003e 1F4B     		ldr	r3, .L37+16
 421 0040 1B78     		ldrb	r3, [r3]	@ zero_extendqisi2
 422 0042 13F0010F 		tst	r3, #1
 423 0046 FAD0     		beq	.L31
 329:Generated_Source\PSoC5/I2C_1_MASTER.c ****             {
 330:Generated_Source\PSoC5/I2C_1_MASTER.c ****             }
 331:Generated_Source\PSoC5/I2C_1_MASTER.c **** 
 332:Generated_Source\PSoC5/I2C_1_MASTER.c ****         #if(I2C_1_MODE_MULTI_MASTER_SLAVE_ENABLED)
 333:Generated_Source\PSoC5/I2C_1_MASTER.c ****             if(I2C_1_CHECK_START_GEN(I2C_1_MCSR_REG))
 424              		.loc 1 333 0
 425 0048 194B     		ldr	r3, .L37+4
 426 004a 1B78     		ldrb	r3, [r3]	@ zero_extendqisi2
 427 004c 13F0010F 		tst	r3, #1
 428 0050 0ED0     		beq	.L32
 429              		.loc 1 333 0 is_stmt 0 discriminator 1
 430 0052 174B     		ldr	r3, .L37+4
 431 0054 1B78     		ldrb	r3, [r3]	@ zero_extendqisi2
 432 0056 13F0040F 		tst	r3, #4
 433 005a 09D1     		bne	.L32
 334:Generated_Source\PSoC5/I2C_1_MASTER.c ****             {
 335:Generated_Source\PSoC5/I2C_1_MASTER.c ****                 I2C_1_CLEAR_START_GEN;
 434              		.loc 1 335 0 is_stmt 1
 435 005c 144A     		ldr	r2, .L37+4
 436 005e 1378     		ldrb	r3, [r2]	@ zero_extendqisi2
 437 0060 03F0FE03 		and	r3, r3, #254
 438 0064 1370     		strb	r3, [r2]
 336:Generated_Source\PSoC5/I2C_1_MASTER.c **** 
 337:Generated_Source\PSoC5/I2C_1_MASTER.c ****                 /* Start condition was not generated: reset FSM to IDLE */
 338:Generated_Source\PSoC5/I2C_1_MASTER.c ****                 I2C_1_state = I2C_1_SM_IDLE;
 439              		.loc 1 338 0
 440 0066 1022     		movs	r2, #16
 441 0068 104B     		ldr	r3, .L37
 442 006a 1A70     		strb	r2, [r3]
 443              	.LVL38:
 339:Generated_Source\PSoC5/I2C_1_MASTER.c ****                 errStatus = I2C_1_MSTR_ERR_ABORT_START_GEN;
 444              		.loc 1 339 0
 445 006c 0520     		movs	r0, #5
 446              	.LVL39:
 447 006e 7047     		bx	lr
 448              	.LVL40:
 449              	.L32:
ARM GAS  C:\Users\user\AppData\Local\Temp\ccAb76rg.s 			page 15


 340:Generated_Source\PSoC5/I2C_1_MASTER.c ****             }
 341:Generated_Source\PSoC5/I2C_1_MASTER.c ****             else
 342:Generated_Source\PSoC5/I2C_1_MASTER.c ****         #endif /* (I2C_1_MODE_MULTI_MASTER_SLAVE_ENABLED) */
 343:Generated_Source\PSoC5/I2C_1_MASTER.c **** 
 344:Generated_Source\PSoC5/I2C_1_MASTER.c ****         #if(I2C_1_MODE_MULTI_MASTER_ENABLED)
 345:Generated_Source\PSoC5/I2C_1_MASTER.c ****             if(I2C_1_CHECK_LOST_ARB(I2C_1_CSR_REG))
 450              		.loc 1 345 0
 451 0070 124B     		ldr	r3, .L37+16
 452 0072 1B78     		ldrb	r3, [r3]	@ zero_extendqisi2
 453 0074 13F0400F 		tst	r3, #64
 454 0078 07D0     		beq	.L33
 346:Generated_Source\PSoC5/I2C_1_MASTER.c ****             {
 347:Generated_Source\PSoC5/I2C_1_MASTER.c ****                 I2C_1_BUS_RELEASE_MANUAL;
 455              		.loc 1 347 0
 456 007a 0022     		movs	r2, #0
 457 007c 0F4B     		ldr	r3, .L37+16
 458 007e 1A70     		strb	r2, [r3]
 348:Generated_Source\PSoC5/I2C_1_MASTER.c **** 
 349:Generated_Source\PSoC5/I2C_1_MASTER.c ****                 /* Master lost arbitrage: reset FSM to IDLE */
 350:Generated_Source\PSoC5/I2C_1_MASTER.c ****                 I2C_1_state = I2C_1_SM_IDLE;
 459              		.loc 1 350 0
 460 0080 1022     		movs	r2, #16
 461 0082 0A4B     		ldr	r3, .L37
 462 0084 1A70     		strb	r2, [r3]
 463              	.LVL41:
 351:Generated_Source\PSoC5/I2C_1_MASTER.c ****                 errStatus = I2C_1_MSTR_ERR_ARB_LOST;
 464              		.loc 1 351 0
 465 0086 0420     		movs	r0, #4
 466              	.LVL42:
 467 0088 7047     		bx	lr
 468              	.LVL43:
 469              	.L33:
 352:Generated_Source\PSoC5/I2C_1_MASTER.c ****             }
 353:Generated_Source\PSoC5/I2C_1_MASTER.c ****             else
 354:Generated_Source\PSoC5/I2C_1_MASTER.c ****         #endif /* (I2C_1_MODE_MULTI_MASTER_ENABLED) */
 355:Generated_Source\PSoC5/I2C_1_MASTER.c **** 
 356:Generated_Source\PSoC5/I2C_1_MASTER.c ****             if(I2C_1_CHECK_ADDR_NAK(I2C_1_CSR_REG))
 470              		.loc 1 356 0
 471 008a 0C4B     		ldr	r3, .L37+16
 472 008c 1B78     		ldrb	r3, [r3]	@ zero_extendqisi2
 473 008e 03F00A03 		and	r3, r3, #10
 474 0092 0A2B     		cmp	r3, #10
 475 0094 08D1     		bne	.L36
 357:Generated_Source\PSoC5/I2C_1_MASTER.c ****             {
 358:Generated_Source\PSoC5/I2C_1_MASTER.c ****                 /* Address has been NACKed: reset FSM to IDLE */
 359:Generated_Source\PSoC5/I2C_1_MASTER.c ****                 I2C_1_state = I2C_1_SM_IDLE;
 476              		.loc 1 359 0
 477 0096 1022     		movs	r2, #16
 478 0098 044B     		ldr	r3, .L37
 479 009a 1A70     		strb	r2, [r3]
 480              	.LVL44:
 360:Generated_Source\PSoC5/I2C_1_MASTER.c ****                 errStatus = I2C_1_MSTR_ERR_LB_NAK;
 481              		.loc 1 360 0
 482 009c 0320     		movs	r0, #3
 483              	.LVL45:
 484 009e 7047     		bx	lr
 485              	.LVL46:
ARM GAS  C:\Users\user\AppData\Local\Temp\ccAb76rg.s 			page 16


 486              	.L34:
 300:Generated_Source\PSoC5/I2C_1_MASTER.c **** 
 487              		.loc 1 300 0
 488 00a0 0220     		movs	r0, #2
 489              	.LVL47:
 490 00a2 7047     		bx	lr
 491              	.LVL48:
 492              	.L35:
 361:Generated_Source\PSoC5/I2C_1_MASTER.c ****             }
 362:Generated_Source\PSoC5/I2C_1_MASTER.c ****             else
 363:Generated_Source\PSoC5/I2C_1_MASTER.c ****             {
 364:Generated_Source\PSoC5/I2C_1_MASTER.c ****                 /* Start was sent without errors */
 365:Generated_Source\PSoC5/I2C_1_MASTER.c ****                 errStatus = I2C_1_MSTR_NO_ERROR;
 366:Generated_Source\PSoC5/I2C_1_MASTER.c ****             }
 367:Generated_Source\PSoC5/I2C_1_MASTER.c ****         }
 368:Generated_Source\PSoC5/I2C_1_MASTER.c ****         else
 369:Generated_Source\PSoC5/I2C_1_MASTER.c ****         {
 370:Generated_Source\PSoC5/I2C_1_MASTER.c ****             errStatus = I2C_1_MSTR_BUS_BUSY;
 493              		.loc 1 370 0
 494 00a4 0120     		movs	r0, #1
 495              	.LVL49:
 496 00a6 7047     		bx	lr
 497              	.LVL50:
 498              	.L36:
 365:Generated_Source\PSoC5/I2C_1_MASTER.c ****             }
 499              		.loc 1 365 0
 500 00a8 0020     		movs	r0, #0
 501              	.LVL51:
 371:Generated_Source\PSoC5/I2C_1_MASTER.c ****         }
 372:Generated_Source\PSoC5/I2C_1_MASTER.c ****     }
 373:Generated_Source\PSoC5/I2C_1_MASTER.c **** 
 374:Generated_Source\PSoC5/I2C_1_MASTER.c ****     return(errStatus);
 375:Generated_Source\PSoC5/I2C_1_MASTER.c **** }
 502              		.loc 1 375 0
 503 00aa 7047     		bx	lr
 504              	.L38:
 505              		.align	2
 506              	.L37:
 507 00ac 00000000 		.word	I2C_1_state
 508 00b0 D9490040 		.word	1073760729
 509 00b4 80E100E0 		.word	-536813184
 510 00b8 D8490040 		.word	1073760728
 511 00bc D7490040 		.word	1073760727
 512              		.cfi_endproc
 513              	.LFE2:
 514              		.size	I2C_1_MasterSendStart, .-I2C_1_MasterSendStart
 515              		.section	.text.I2C_1_MasterSendRestart,"ax",%progbits
 516              		.align	2
 517              		.global	I2C_1_MasterSendRestart
 518              		.thumb
 519              		.thumb_func
 520              		.type	I2C_1_MasterSendRestart, %function
 521              	I2C_1_MasterSendRestart:
 522              	.LFB3:
 376:Generated_Source\PSoC5/I2C_1_MASTER.c **** 
 377:Generated_Source\PSoC5/I2C_1_MASTER.c **** 
 378:Generated_Source\PSoC5/I2C_1_MASTER.c **** /*******************************************************************************
ARM GAS  C:\Users\user\AppData\Local\Temp\ccAb76rg.s 			page 17


 379:Generated_Source\PSoC5/I2C_1_MASTER.c **** * Function Name: I2C_1_MasterSendRestart
 380:Generated_Source\PSoC5/I2C_1_MASTER.c **** ********************************************************************************
 381:Generated_Source\PSoC5/I2C_1_MASTER.c **** *
 382:Generated_Source\PSoC5/I2C_1_MASTER.c **** * Summary:
 383:Generated_Source\PSoC5/I2C_1_MASTER.c **** *  Generates ReStart condition and sends slave address with read/write bit.
 384:Generated_Source\PSoC5/I2C_1_MASTER.c **** *
 385:Generated_Source\PSoC5/I2C_1_MASTER.c **** * Parameters:
 386:Generated_Source\PSoC5/I2C_1_MASTER.c **** *  slaveAddress:  7-bit slave address.
 387:Generated_Source\PSoC5/I2C_1_MASTER.c **** *  R_nW:          Zero, send write command, non-zero send read command.
 388:Generated_Source\PSoC5/I2C_1_MASTER.c **** *
 389:Generated_Source\PSoC5/I2C_1_MASTER.c **** * Return:
 390:Generated_Source\PSoC5/I2C_1_MASTER.c **** *  Status error - Zero means no errors.
 391:Generated_Source\PSoC5/I2C_1_MASTER.c **** *
 392:Generated_Source\PSoC5/I2C_1_MASTER.c **** * Side Effects:
 393:Generated_Source\PSoC5/I2C_1_MASTER.c **** *  This function is entered without a "byte complete" bit set in the I2C_CSR
 394:Generated_Source\PSoC5/I2C_1_MASTER.c **** *  register. It does not exit until it is set.
 395:Generated_Source\PSoC5/I2C_1_MASTER.c **** *
 396:Generated_Source\PSoC5/I2C_1_MASTER.c **** * Global variables:
 397:Generated_Source\PSoC5/I2C_1_MASTER.c **** *  I2C_1_state - The global variable used to store a current state of
 398:Generated_Source\PSoC5/I2C_1_MASTER.c **** *                           the software FSM.
 399:Generated_Source\PSoC5/I2C_1_MASTER.c **** *
 400:Generated_Source\PSoC5/I2C_1_MASTER.c **** * Reentrant:
 401:Generated_Source\PSoC5/I2C_1_MASTER.c **** *  No.
 402:Generated_Source\PSoC5/I2C_1_MASTER.c **** *
 403:Generated_Source\PSoC5/I2C_1_MASTER.c **** *******************************************************************************/
 404:Generated_Source\PSoC5/I2C_1_MASTER.c **** uint8 I2C_1_MasterSendRestart(uint8 slaveAddress, uint8 R_nW)
 405:Generated_Source\PSoC5/I2C_1_MASTER.c ****       
 406:Generated_Source\PSoC5/I2C_1_MASTER.c **** {
 523              		.loc 1 406 0
 524              		.cfi_startproc
 525              		@ args = 0, pretend = 0, frame = 0
 526              		@ frame_needed = 0, uses_anonymous_args = 0
 527              		@ link register save eliminated.
 528              	.LVL52:
 407:Generated_Source\PSoC5/I2C_1_MASTER.c ****     uint8 errStatus;
 408:Generated_Source\PSoC5/I2C_1_MASTER.c **** 
 409:Generated_Source\PSoC5/I2C_1_MASTER.c ****     errStatus = I2C_1_MSTR_NOT_READY;
 410:Generated_Source\PSoC5/I2C_1_MASTER.c **** 
 411:Generated_Source\PSoC5/I2C_1_MASTER.c ****     /* Check if START condition was generated */
 412:Generated_Source\PSoC5/I2C_1_MASTER.c ****     if(I2C_1_CHECK_MASTER_MODE(I2C_1_MCSR_REG))
 529              		.loc 1 412 0
 530 0000 1C4B     		ldr	r3, .L47
 531 0002 1B78     		ldrb	r3, [r3]	@ zero_extendqisi2
 532 0004 13F0040F 		tst	r3, #4
 533 0008 30D0     		beq	.L45
 413:Generated_Source\PSoC5/I2C_1_MASTER.c ****     {
 414:Generated_Source\PSoC5/I2C_1_MASTER.c ****         /* Set address and read/write flag */
 415:Generated_Source\PSoC5/I2C_1_MASTER.c ****         slaveAddress = (uint8) (slaveAddress << I2C_1_SLAVE_ADDR_SHIFT);
 534              		.loc 1 415 0
 535 000a 4000     		lsls	r0, r0, #1
 536              	.LVL53:
 537 000c C0B2     		uxtb	r0, r0
 538              	.LVL54:
 416:Generated_Source\PSoC5/I2C_1_MASTER.c ****         if(0u != R_nW)
 539              		.loc 1 416 0
 540 000e 29B1     		cbz	r1, .L41
 417:Generated_Source\PSoC5/I2C_1_MASTER.c ****         {
ARM GAS  C:\Users\user\AppData\Local\Temp\ccAb76rg.s 			page 18


 418:Generated_Source\PSoC5/I2C_1_MASTER.c ****             slaveAddress |= I2C_1_READ_FLAG;
 541              		.loc 1 418 0
 542 0010 40F00100 		orr	r0, r0, #1
 543              	.LVL55:
 419:Generated_Source\PSoC5/I2C_1_MASTER.c ****             I2C_1_state = I2C_1_SM_MSTR_RD_ADDR;
 544              		.loc 1 419 0
 545 0014 4922     		movs	r2, #73
 546 0016 184B     		ldr	r3, .L47+4
 547 0018 1A70     		strb	r2, [r3]
 548 001a 02E0     		b	.L42
 549              	.L41:
 420:Generated_Source\PSoC5/I2C_1_MASTER.c ****         }
 421:Generated_Source\PSoC5/I2C_1_MASTER.c ****         else
 422:Generated_Source\PSoC5/I2C_1_MASTER.c ****         {
 423:Generated_Source\PSoC5/I2C_1_MASTER.c ****             I2C_1_state = I2C_1_SM_MSTR_WR_ADDR;
 550              		.loc 1 423 0
 551 001c 4522     		movs	r2, #69
 552 001e 164B     		ldr	r3, .L47+4
 553 0020 1A70     		strb	r2, [r3]
 554              	.L42:
 424:Generated_Source\PSoC5/I2C_1_MASTER.c ****         }
 425:Generated_Source\PSoC5/I2C_1_MASTER.c **** 
 426:Generated_Source\PSoC5/I2C_1_MASTER.c ****         /* Hardware actions: write address and generate ReStart */
 427:Generated_Source\PSoC5/I2C_1_MASTER.c ****         I2C_1_DATA_REG = slaveAddress;
 555              		.loc 1 427 0
 556 0022 164B     		ldr	r3, .L47+8
 557 0024 1870     		strb	r0, [r3]
 428:Generated_Source\PSoC5/I2C_1_MASTER.c ****         I2C_1_GENERATE_RESTART_MANUAL;
 558              		.loc 1 428 0
 559 0026 1222     		movs	r2, #18
 560 0028 0133     		adds	r3, r3, #1
 561 002a 1A70     		strb	r2, [r3]
 562 002c 0422     		movs	r2, #4
 563 002e 023B     		subs	r3, r3, #2
 564 0030 1A70     		strb	r2, [r3]
 565              	.L43:
 429:Generated_Source\PSoC5/I2C_1_MASTER.c **** 
 430:Generated_Source\PSoC5/I2C_1_MASTER.c ****         /* Wait until address has been transferred */
 431:Generated_Source\PSoC5/I2C_1_MASTER.c ****         while(I2C_1_WAIT_BYTE_COMPLETE(I2C_1_CSR_REG))
 566              		.loc 1 431 0 discriminator 1
 567 0032 134B     		ldr	r3, .L47+12
 568 0034 1B78     		ldrb	r3, [r3]	@ zero_extendqisi2
 569 0036 13F0010F 		tst	r3, #1
 570 003a FAD0     		beq	.L43
 432:Generated_Source\PSoC5/I2C_1_MASTER.c ****         {
 433:Generated_Source\PSoC5/I2C_1_MASTER.c ****         }
 434:Generated_Source\PSoC5/I2C_1_MASTER.c **** 
 435:Generated_Source\PSoC5/I2C_1_MASTER.c ****     #if(I2C_1_MODE_MULTI_MASTER_ENABLED)
 436:Generated_Source\PSoC5/I2C_1_MASTER.c ****         if(I2C_1_CHECK_LOST_ARB(I2C_1_CSR_REG))
 571              		.loc 1 436 0
 572 003c 104B     		ldr	r3, .L47+12
 573 003e 1B78     		ldrb	r3, [r3]	@ zero_extendqisi2
 574 0040 13F0400F 		tst	r3, #64
 575 0044 07D0     		beq	.L44
 437:Generated_Source\PSoC5/I2C_1_MASTER.c ****         {
 438:Generated_Source\PSoC5/I2C_1_MASTER.c ****             I2C_1_BUS_RELEASE_MANUAL;
 576              		.loc 1 438 0
ARM GAS  C:\Users\user\AppData\Local\Temp\ccAb76rg.s 			page 19


 577 0046 0022     		movs	r2, #0
 578 0048 0D4B     		ldr	r3, .L47+12
 579 004a 1A70     		strb	r2, [r3]
 439:Generated_Source\PSoC5/I2C_1_MASTER.c **** 
 440:Generated_Source\PSoC5/I2C_1_MASTER.c ****             /* Master lost arbitrage: reset FSM to IDLE */
 441:Generated_Source\PSoC5/I2C_1_MASTER.c ****             I2C_1_state = I2C_1_SM_IDLE;
 580              		.loc 1 441 0
 581 004c 1022     		movs	r2, #16
 582 004e 0A4B     		ldr	r3, .L47+4
 583 0050 1A70     		strb	r2, [r3]
 584              	.LVL56:
 442:Generated_Source\PSoC5/I2C_1_MASTER.c ****             errStatus = I2C_1_MSTR_ERR_ARB_LOST;
 585              		.loc 1 442 0
 586 0052 0420     		movs	r0, #4
 587              	.LVL57:
 588 0054 7047     		bx	lr
 589              	.LVL58:
 590              	.L44:
 443:Generated_Source\PSoC5/I2C_1_MASTER.c ****         }
 444:Generated_Source\PSoC5/I2C_1_MASTER.c ****         else
 445:Generated_Source\PSoC5/I2C_1_MASTER.c ****     #endif /* (I2C_1_MODE_MULTI_MASTER_ENABLED) */
 446:Generated_Source\PSoC5/I2C_1_MASTER.c **** 
 447:Generated_Source\PSoC5/I2C_1_MASTER.c ****         if(I2C_1_CHECK_ADDR_NAK(I2C_1_CSR_REG))
 591              		.loc 1 447 0
 592 0056 0A4B     		ldr	r3, .L47+12
 593 0058 1B78     		ldrb	r3, [r3]	@ zero_extendqisi2
 594 005a 03F00A03 		and	r3, r3, #10
 595 005e 0A2B     		cmp	r3, #10
 596 0060 06D1     		bne	.L46
 448:Generated_Source\PSoC5/I2C_1_MASTER.c ****         {
 449:Generated_Source\PSoC5/I2C_1_MASTER.c ****             /* Address has been NACKed: reset FSM to IDLE */
 450:Generated_Source\PSoC5/I2C_1_MASTER.c ****             I2C_1_state = I2C_1_SM_IDLE;
 597              		.loc 1 450 0
 598 0062 1022     		movs	r2, #16
 599 0064 044B     		ldr	r3, .L47+4
 600 0066 1A70     		strb	r2, [r3]
 601              	.LVL59:
 451:Generated_Source\PSoC5/I2C_1_MASTER.c ****             errStatus = I2C_1_MSTR_ERR_LB_NAK;
 602              		.loc 1 451 0
 603 0068 0320     		movs	r0, #3
 604              	.LVL60:
 605 006a 7047     		bx	lr
 606              	.LVL61:
 607              	.L45:
 409:Generated_Source\PSoC5/I2C_1_MASTER.c **** 
 608              		.loc 1 409 0
 609 006c 0220     		movs	r0, #2
 610              	.LVL62:
 611 006e 7047     		bx	lr
 612              	.LVL63:
 613              	.L46:
 452:Generated_Source\PSoC5/I2C_1_MASTER.c ****         }
 453:Generated_Source\PSoC5/I2C_1_MASTER.c ****         else
 454:Generated_Source\PSoC5/I2C_1_MASTER.c ****         {
 455:Generated_Source\PSoC5/I2C_1_MASTER.c ****             /* ReStart was sent without errors */
 456:Generated_Source\PSoC5/I2C_1_MASTER.c ****             errStatus = I2C_1_MSTR_NO_ERROR;
 614              		.loc 1 456 0
ARM GAS  C:\Users\user\AppData\Local\Temp\ccAb76rg.s 			page 20


 615 0070 0020     		movs	r0, #0
 616              	.LVL64:
 457:Generated_Source\PSoC5/I2C_1_MASTER.c ****         }
 458:Generated_Source\PSoC5/I2C_1_MASTER.c ****     }
 459:Generated_Source\PSoC5/I2C_1_MASTER.c **** 
 460:Generated_Source\PSoC5/I2C_1_MASTER.c ****     return(errStatus);
 461:Generated_Source\PSoC5/I2C_1_MASTER.c **** }
 617              		.loc 1 461 0
 618 0072 7047     		bx	lr
 619              	.L48:
 620              		.align	2
 621              	.L47:
 622 0074 D9490040 		.word	1073760729
 623 0078 00000000 		.word	I2C_1_state
 624 007c D8490040 		.word	1073760728
 625 0080 D7490040 		.word	1073760727
 626              		.cfi_endproc
 627              	.LFE3:
 628              		.size	I2C_1_MasterSendRestart, .-I2C_1_MasterSendRestart
 629              		.section	.text.I2C_1_MasterSendStop,"ax",%progbits
 630              		.align	2
 631              		.global	I2C_1_MasterSendStop
 632              		.thumb
 633              		.thumb_func
 634              		.type	I2C_1_MasterSendStop, %function
 635              	I2C_1_MasterSendStop:
 636              	.LFB4:
 462:Generated_Source\PSoC5/I2C_1_MASTER.c **** 
 463:Generated_Source\PSoC5/I2C_1_MASTER.c **** 
 464:Generated_Source\PSoC5/I2C_1_MASTER.c **** /*******************************************************************************
 465:Generated_Source\PSoC5/I2C_1_MASTER.c **** * Function Name: I2C_1_MasterSendStop
 466:Generated_Source\PSoC5/I2C_1_MASTER.c **** ********************************************************************************
 467:Generated_Source\PSoC5/I2C_1_MASTER.c **** *
 468:Generated_Source\PSoC5/I2C_1_MASTER.c **** * Summary:
 469:Generated_Source\PSoC5/I2C_1_MASTER.c **** *  Generates I2C Stop condition on bus. Function do nothing if Start or Restart
 470:Generated_Source\PSoC5/I2C_1_MASTER.c **** *  condition was failed before call this function.
 471:Generated_Source\PSoC5/I2C_1_MASTER.c **** *
 472:Generated_Source\PSoC5/I2C_1_MASTER.c **** * Parameters:
 473:Generated_Source\PSoC5/I2C_1_MASTER.c **** *  None.
 474:Generated_Source\PSoC5/I2C_1_MASTER.c **** *
 475:Generated_Source\PSoC5/I2C_1_MASTER.c **** * Return:
 476:Generated_Source\PSoC5/I2C_1_MASTER.c **** *  Status error - Zero means no errors.
 477:Generated_Source\PSoC5/I2C_1_MASTER.c **** *
 478:Generated_Source\PSoC5/I2C_1_MASTER.c **** * Side Effects:
 479:Generated_Source\PSoC5/I2C_1_MASTER.c **** *  Stop generation is required to complete the transaction.
 480:Generated_Source\PSoC5/I2C_1_MASTER.c **** *  This function does not wait until a Stop condition is generated.
 481:Generated_Source\PSoC5/I2C_1_MASTER.c **** *
 482:Generated_Source\PSoC5/I2C_1_MASTER.c **** * Global variables:
 483:Generated_Source\PSoC5/I2C_1_MASTER.c **** *  I2C_1_state - The global variable used to store a current state of
 484:Generated_Source\PSoC5/I2C_1_MASTER.c **** *                           the software FSM.
 485:Generated_Source\PSoC5/I2C_1_MASTER.c **** *
 486:Generated_Source\PSoC5/I2C_1_MASTER.c **** * Reentrant:
 487:Generated_Source\PSoC5/I2C_1_MASTER.c **** *  No.
 488:Generated_Source\PSoC5/I2C_1_MASTER.c **** *
 489:Generated_Source\PSoC5/I2C_1_MASTER.c **** *******************************************************************************/
 490:Generated_Source\PSoC5/I2C_1_MASTER.c **** uint8 I2C_1_MasterSendStop(void) 
 491:Generated_Source\PSoC5/I2C_1_MASTER.c **** {
ARM GAS  C:\Users\user\AppData\Local\Temp\ccAb76rg.s 			page 21


 637              		.loc 1 491 0
 638              		.cfi_startproc
 639              		@ args = 0, pretend = 0, frame = 0
 640              		@ frame_needed = 0, uses_anonymous_args = 0
 641              		@ link register save eliminated.
 642              	.LVL65:
 492:Generated_Source\PSoC5/I2C_1_MASTER.c ****     uint8 errStatus;
 493:Generated_Source\PSoC5/I2C_1_MASTER.c **** 
 494:Generated_Source\PSoC5/I2C_1_MASTER.c ****     errStatus = I2C_1_MSTR_NOT_READY;
 495:Generated_Source\PSoC5/I2C_1_MASTER.c **** 
 496:Generated_Source\PSoC5/I2C_1_MASTER.c ****     /* Check if master is active on bus */
 497:Generated_Source\PSoC5/I2C_1_MASTER.c ****     if(I2C_1_CHECK_MASTER_MODE(I2C_1_MCSR_REG))
 643              		.loc 1 497 0
 644 0000 0F4B     		ldr	r3, .L54
 645 0002 1B78     		ldrb	r3, [r3]	@ zero_extendqisi2
 646 0004 13F0040F 		tst	r3, #4
 647 0008 16D0     		beq	.L52
 498:Generated_Source\PSoC5/I2C_1_MASTER.c ****     {
 499:Generated_Source\PSoC5/I2C_1_MASTER.c ****         I2C_1_GENERATE_STOP_MANUAL;
 648              		.loc 1 499 0
 649 000a 1023     		movs	r3, #16
 650 000c 0C4A     		ldr	r2, .L54
 651 000e 1370     		strb	r3, [r2]
 652 0010 0421     		movs	r1, #4
 653 0012 023A     		subs	r2, r2, #2
 654 0014 1170     		strb	r1, [r2]
 500:Generated_Source\PSoC5/I2C_1_MASTER.c ****         I2C_1_state = I2C_1_SM_IDLE;
 655              		.loc 1 500 0
 656 0016 0B4A     		ldr	r2, .L54+4
 657 0018 1370     		strb	r3, [r2]
 658              	.L51:
 501:Generated_Source\PSoC5/I2C_1_MASTER.c **** 
 502:Generated_Source\PSoC5/I2C_1_MASTER.c ****         /* Wait until stop has been generated */
 503:Generated_Source\PSoC5/I2C_1_MASTER.c ****         while(I2C_1_WAIT_STOP_COMPLETE(I2C_1_CSR_REG))
 659              		.loc 1 503 0 discriminator 1
 660 001a 0B4B     		ldr	r3, .L54+8
 661 001c 1B78     		ldrb	r3, [r3]	@ zero_extendqisi2
 662 001e 13F0210F 		tst	r3, #33
 663 0022 FAD0     		beq	.L51
 664              	.LVL66:
 504:Generated_Source\PSoC5/I2C_1_MASTER.c ****         {
 505:Generated_Source\PSoC5/I2C_1_MASTER.c ****         }
 506:Generated_Source\PSoC5/I2C_1_MASTER.c **** 
 507:Generated_Source\PSoC5/I2C_1_MASTER.c ****         errStatus = I2C_1_MSTR_NO_ERROR;
 508:Generated_Source\PSoC5/I2C_1_MASTER.c **** 
 509:Generated_Source\PSoC5/I2C_1_MASTER.c ****     #if(I2C_1_MODE_MULTI_MASTER_ENABLED)
 510:Generated_Source\PSoC5/I2C_1_MASTER.c ****         if(I2C_1_CHECK_LOST_ARB(I2C_1_CSR_REG))
 665              		.loc 1 510 0
 666 0024 084B     		ldr	r3, .L54+8
 667 0026 1B78     		ldrb	r3, [r3]	@ zero_extendqisi2
 668 0028 13F0400F 		tst	r3, #64
 669 002c 06D0     		beq	.L53
 511:Generated_Source\PSoC5/I2C_1_MASTER.c ****         {
 512:Generated_Source\PSoC5/I2C_1_MASTER.c ****             I2C_1_BUS_RELEASE_MANUAL;
 670              		.loc 1 512 0
 671 002e 0022     		movs	r2, #0
 672 0030 054B     		ldr	r3, .L54+8
ARM GAS  C:\Users\user\AppData\Local\Temp\ccAb76rg.s 			page 22


 673 0032 1A70     		strb	r2, [r3]
 674              	.LVL67:
 513:Generated_Source\PSoC5/I2C_1_MASTER.c **** 
 514:Generated_Source\PSoC5/I2C_1_MASTER.c ****             /* NACK was generated by instead Stop */
 515:Generated_Source\PSoC5/I2C_1_MASTER.c ****             errStatus = I2C_1_MSTR_ERR_ARB_LOST;
 675              		.loc 1 515 0
 676 0034 0420     		movs	r0, #4
 677 0036 7047     		bx	lr
 678              	.LVL68:
 679              	.L52:
 494:Generated_Source\PSoC5/I2C_1_MASTER.c **** 
 680              		.loc 1 494 0
 681 0038 0220     		movs	r0, #2
 682 003a 7047     		bx	lr
 683              	.LVL69:
 684              	.L53:
 507:Generated_Source\PSoC5/I2C_1_MASTER.c **** 
 685              		.loc 1 507 0
 686 003c 0020     		movs	r0, #0
 687              	.LVL70:
 516:Generated_Source\PSoC5/I2C_1_MASTER.c ****         }
 517:Generated_Source\PSoC5/I2C_1_MASTER.c ****     #endif /* (I2C_1_MODE_MULTI_MASTER_ENABLED) */
 518:Generated_Source\PSoC5/I2C_1_MASTER.c ****     }
 519:Generated_Source\PSoC5/I2C_1_MASTER.c **** 
 520:Generated_Source\PSoC5/I2C_1_MASTER.c ****     return(errStatus);
 521:Generated_Source\PSoC5/I2C_1_MASTER.c **** }
 688              		.loc 1 521 0
 689 003e 7047     		bx	lr
 690              	.L55:
 691              		.align	2
 692              	.L54:
 693 0040 D9490040 		.word	1073760729
 694 0044 00000000 		.word	I2C_1_state
 695 0048 D7490040 		.word	1073760727
 696              		.cfi_endproc
 697              	.LFE4:
 698              		.size	I2C_1_MasterSendStop, .-I2C_1_MasterSendStop
 699              		.section	.text.I2C_1_MasterWriteByte,"ax",%progbits
 700              		.align	2
 701              		.global	I2C_1_MasterWriteByte
 702              		.thumb
 703              		.thumb_func
 704              		.type	I2C_1_MasterWriteByte, %function
 705              	I2C_1_MasterWriteByte:
 706              	.LFB5:
 522:Generated_Source\PSoC5/I2C_1_MASTER.c **** 
 523:Generated_Source\PSoC5/I2C_1_MASTER.c **** 
 524:Generated_Source\PSoC5/I2C_1_MASTER.c **** /*******************************************************************************
 525:Generated_Source\PSoC5/I2C_1_MASTER.c **** * Function Name: I2C_1_MasterWriteByte
 526:Generated_Source\PSoC5/I2C_1_MASTER.c **** ********************************************************************************
 527:Generated_Source\PSoC5/I2C_1_MASTER.c **** *
 528:Generated_Source\PSoC5/I2C_1_MASTER.c **** * Summary:
 529:Generated_Source\PSoC5/I2C_1_MASTER.c **** *  Sends one byte to a slave. A valid Start or ReStart condition must be
 530:Generated_Source\PSoC5/I2C_1_MASTER.c **** *  generated before this call this function. Function do nothing if Start or
 531:Generated_Source\PSoC5/I2C_1_MASTER.c **** *  Restart condition was failed before call this function.
 532:Generated_Source\PSoC5/I2C_1_MASTER.c **** *
 533:Generated_Source\PSoC5/I2C_1_MASTER.c **** * Parameters:
ARM GAS  C:\Users\user\AppData\Local\Temp\ccAb76rg.s 			page 23


 534:Generated_Source\PSoC5/I2C_1_MASTER.c **** *  data:  The data byte to send to the slave.
 535:Generated_Source\PSoC5/I2C_1_MASTER.c **** *
 536:Generated_Source\PSoC5/I2C_1_MASTER.c **** * Return:
 537:Generated_Source\PSoC5/I2C_1_MASTER.c **** *  Status error - Zero means no errors.
 538:Generated_Source\PSoC5/I2C_1_MASTER.c **** *
 539:Generated_Source\PSoC5/I2C_1_MASTER.c **** * Side Effects:
 540:Generated_Source\PSoC5/I2C_1_MASTER.c **** *  This function is entered without a "byte complete" bit set in the I2C_CSR
 541:Generated_Source\PSoC5/I2C_1_MASTER.c **** *  register. It does not exit until it is set.
 542:Generated_Source\PSoC5/I2C_1_MASTER.c **** *
 543:Generated_Source\PSoC5/I2C_1_MASTER.c **** * Global variables:
 544:Generated_Source\PSoC5/I2C_1_MASTER.c **** *  I2C_1_state - The global variable used to store a current state of
 545:Generated_Source\PSoC5/I2C_1_MASTER.c **** *                           the software FSM.
 546:Generated_Source\PSoC5/I2C_1_MASTER.c **** *
 547:Generated_Source\PSoC5/I2C_1_MASTER.c **** *******************************************************************************/
 548:Generated_Source\PSoC5/I2C_1_MASTER.c **** uint8 I2C_1_MasterWriteByte(uint8 theByte) 
 549:Generated_Source\PSoC5/I2C_1_MASTER.c **** {
 707              		.loc 1 549 0
 708              		.cfi_startproc
 709              		@ args = 0, pretend = 0, frame = 0
 710              		@ frame_needed = 0, uses_anonymous_args = 0
 711              		@ link register save eliminated.
 712              	.LVL71:
 550:Generated_Source\PSoC5/I2C_1_MASTER.c ****     uint8 errStatus;
 551:Generated_Source\PSoC5/I2C_1_MASTER.c **** 
 552:Generated_Source\PSoC5/I2C_1_MASTER.c ****     errStatus = I2C_1_MSTR_NOT_READY;
 553:Generated_Source\PSoC5/I2C_1_MASTER.c **** 
 554:Generated_Source\PSoC5/I2C_1_MASTER.c ****     /* Check if START condition was generated */
 555:Generated_Source\PSoC5/I2C_1_MASTER.c ****     if(I2C_1_CHECK_MASTER_MODE(I2C_1_MCSR_REG))
 713              		.loc 1 555 0
 714 0000 174B     		ldr	r3, .L62
 715 0002 1B78     		ldrb	r3, [r3]	@ zero_extendqisi2
 716 0004 13F0040F 		tst	r3, #4
 717 0008 28D0     		beq	.L61
 556:Generated_Source\PSoC5/I2C_1_MASTER.c ****     {
 557:Generated_Source\PSoC5/I2C_1_MASTER.c ****         I2C_1_DATA_REG = theByte;   /* Write DATA register */
 718              		.loc 1 557 0
 719 000a 164B     		ldr	r3, .L62+4
 720 000c 1870     		strb	r0, [r3]
 558:Generated_Source\PSoC5/I2C_1_MASTER.c ****         I2C_1_TRANSMIT_DATA_MANUAL; /* Set transmit mode   */
 721              		.loc 1 558 0
 722 000e 0422     		movs	r2, #4
 723 0010 013B     		subs	r3, r3, #1
 724 0012 1A70     		strb	r2, [r3]
 559:Generated_Source\PSoC5/I2C_1_MASTER.c ****         I2C_1_state = I2C_1_SM_MSTR_WR_DATA;
 725              		.loc 1 559 0
 726 0014 4622     		movs	r2, #70
 727 0016 144B     		ldr	r3, .L62+8
 728 0018 1A70     		strb	r2, [r3]
 729              	.L58:
 560:Generated_Source\PSoC5/I2C_1_MASTER.c **** 
 561:Generated_Source\PSoC5/I2C_1_MASTER.c ****         /* Wait until data byte has been transmitted */
 562:Generated_Source\PSoC5/I2C_1_MASTER.c ****         while(I2C_1_WAIT_BYTE_COMPLETE(I2C_1_CSR_REG))
 730              		.loc 1 562 0 discriminator 1
 731 001a 144B     		ldr	r3, .L62+12
 732 001c 1B78     		ldrb	r3, [r3]	@ zero_extendqisi2
 733 001e 13F0010F 		tst	r3, #1
 734 0022 FAD0     		beq	.L58
ARM GAS  C:\Users\user\AppData\Local\Temp\ccAb76rg.s 			page 24


 563:Generated_Source\PSoC5/I2C_1_MASTER.c ****         {
 564:Generated_Source\PSoC5/I2C_1_MASTER.c ****         }
 565:Generated_Source\PSoC5/I2C_1_MASTER.c **** 
 566:Generated_Source\PSoC5/I2C_1_MASTER.c ****     #if(I2C_1_MODE_MULTI_MASTER_ENABLED)
 567:Generated_Source\PSoC5/I2C_1_MASTER.c ****         if(I2C_1_CHECK_LOST_ARB(I2C_1_CSR_REG))
 735              		.loc 1 567 0
 736 0024 114B     		ldr	r3, .L62+12
 737 0026 1B78     		ldrb	r3, [r3]	@ zero_extendqisi2
 738 0028 13F0400F 		tst	r3, #64
 739 002c 07D0     		beq	.L59
 568:Generated_Source\PSoC5/I2C_1_MASTER.c ****         {
 569:Generated_Source\PSoC5/I2C_1_MASTER.c ****             I2C_1_BUS_RELEASE_MANUAL;
 740              		.loc 1 569 0
 741 002e 0022     		movs	r2, #0
 742 0030 0E4B     		ldr	r3, .L62+12
 743 0032 1A70     		strb	r2, [r3]
 570:Generated_Source\PSoC5/I2C_1_MASTER.c **** 
 571:Generated_Source\PSoC5/I2C_1_MASTER.c ****             /* Master lost arbitrage: reset FSM to IDLE */
 572:Generated_Source\PSoC5/I2C_1_MASTER.c ****             I2C_1_state = I2C_1_SM_IDLE;
 744              		.loc 1 572 0
 745 0034 1022     		movs	r2, #16
 746 0036 0C4B     		ldr	r3, .L62+8
 747 0038 1A70     		strb	r2, [r3]
 748              	.LVL72:
 573:Generated_Source\PSoC5/I2C_1_MASTER.c ****             errStatus = I2C_1_MSTR_ERR_ARB_LOST;
 749              		.loc 1 573 0
 750 003a 0420     		movs	r0, #4
 751              	.LVL73:
 752 003c 7047     		bx	lr
 753              	.LVL74:
 754              	.L59:
 574:Generated_Source\PSoC5/I2C_1_MASTER.c ****         }
 575:Generated_Source\PSoC5/I2C_1_MASTER.c ****         /* Check LRB bit */
 576:Generated_Source\PSoC5/I2C_1_MASTER.c ****         else
 577:Generated_Source\PSoC5/I2C_1_MASTER.c ****     #endif /* (I2C_1_MODE_MULTI_MASTER_ENABLED) */
 578:Generated_Source\PSoC5/I2C_1_MASTER.c **** 
 579:Generated_Source\PSoC5/I2C_1_MASTER.c ****         if(I2C_1_CHECK_DATA_ACK(I2C_1_CSR_REG))
 755              		.loc 1 579 0
 756 003e 0B4B     		ldr	r3, .L62+12
 757 0040 1B78     		ldrb	r3, [r3]	@ zero_extendqisi2
 758 0042 13F0020F 		tst	r3, #2
 759 0046 04D1     		bne	.L60
 580:Generated_Source\PSoC5/I2C_1_MASTER.c ****         {
 581:Generated_Source\PSoC5/I2C_1_MASTER.c ****             I2C_1_state = I2C_1_SM_MSTR_HALT;
 760              		.loc 1 581 0
 761 0048 6022     		movs	r2, #96
 762 004a 074B     		ldr	r3, .L62+8
 763 004c 1A70     		strb	r2, [r3]
 764              	.LVL75:
 582:Generated_Source\PSoC5/I2C_1_MASTER.c ****             errStatus = I2C_1_MSTR_NO_ERROR;
 765              		.loc 1 582 0
 766 004e 0020     		movs	r0, #0
 767              	.LVL76:
 768 0050 7047     		bx	lr
 769              	.LVL77:
 770              	.L60:
 583:Generated_Source\PSoC5/I2C_1_MASTER.c ****         }
ARM GAS  C:\Users\user\AppData\Local\Temp\ccAb76rg.s 			page 25


 584:Generated_Source\PSoC5/I2C_1_MASTER.c ****         else
 585:Generated_Source\PSoC5/I2C_1_MASTER.c ****         {
 586:Generated_Source\PSoC5/I2C_1_MASTER.c ****             I2C_1_state = I2C_1_SM_MSTR_HALT;
 771              		.loc 1 586 0
 772 0052 6022     		movs	r2, #96
 773 0054 044B     		ldr	r3, .L62+8
 774 0056 1A70     		strb	r2, [r3]
 775              	.LVL78:
 587:Generated_Source\PSoC5/I2C_1_MASTER.c ****             errStatus = I2C_1_MSTR_ERR_LB_NAK;
 776              		.loc 1 587 0
 777 0058 0320     		movs	r0, #3
 778              	.LVL79:
 779 005a 7047     		bx	lr
 780              	.LVL80:
 781              	.L61:
 552:Generated_Source\PSoC5/I2C_1_MASTER.c **** 
 782              		.loc 1 552 0
 783 005c 0220     		movs	r0, #2
 784              	.LVL81:
 588:Generated_Source\PSoC5/I2C_1_MASTER.c ****         }
 589:Generated_Source\PSoC5/I2C_1_MASTER.c ****     }
 590:Generated_Source\PSoC5/I2C_1_MASTER.c **** 
 591:Generated_Source\PSoC5/I2C_1_MASTER.c ****     return(errStatus);
 592:Generated_Source\PSoC5/I2C_1_MASTER.c **** }
 785              		.loc 1 592 0
 786 005e 7047     		bx	lr
 787              	.L63:
 788              		.align	2
 789              	.L62:
 790 0060 D9490040 		.word	1073760729
 791 0064 D8490040 		.word	1073760728
 792 0068 00000000 		.word	I2C_1_state
 793 006c D7490040 		.word	1073760727
 794              		.cfi_endproc
 795              	.LFE5:
 796              		.size	I2C_1_MasterWriteByte, .-I2C_1_MasterWriteByte
 797              		.section	.text.I2C_1_MasterReadByte,"ax",%progbits
 798              		.align	2
 799              		.global	I2C_1_MasterReadByte
 800              		.thumb
 801              		.thumb_func
 802              		.type	I2C_1_MasterReadByte, %function
 803              	I2C_1_MasterReadByte:
 804              	.LFB6:
 593:Generated_Source\PSoC5/I2C_1_MASTER.c **** 
 594:Generated_Source\PSoC5/I2C_1_MASTER.c **** 
 595:Generated_Source\PSoC5/I2C_1_MASTER.c **** /*******************************************************************************
 596:Generated_Source\PSoC5/I2C_1_MASTER.c **** * Function Name: I2C_1_MasterReadByte
 597:Generated_Source\PSoC5/I2C_1_MASTER.c **** ********************************************************************************
 598:Generated_Source\PSoC5/I2C_1_MASTER.c **** *
 599:Generated_Source\PSoC5/I2C_1_MASTER.c **** * Summary:
 600:Generated_Source\PSoC5/I2C_1_MASTER.c **** *  Reads one byte from a slave and ACK or NACK the transfer. A valid Start or
 601:Generated_Source\PSoC5/I2C_1_MASTER.c **** *  ReStart condition must be generated before this call this function. Function
 602:Generated_Source\PSoC5/I2C_1_MASTER.c **** *  do nothing if Start or Restart condition was failed before call this
 603:Generated_Source\PSoC5/I2C_1_MASTER.c **** *  function.
 604:Generated_Source\PSoC5/I2C_1_MASTER.c **** *
 605:Generated_Source\PSoC5/I2C_1_MASTER.c **** * Parameters:
ARM GAS  C:\Users\user\AppData\Local\Temp\ccAb76rg.s 			page 26


 606:Generated_Source\PSoC5/I2C_1_MASTER.c **** *  acknNack:  Zero, response with NACK, if non-zero response with ACK.
 607:Generated_Source\PSoC5/I2C_1_MASTER.c **** *
 608:Generated_Source\PSoC5/I2C_1_MASTER.c **** * Return:
 609:Generated_Source\PSoC5/I2C_1_MASTER.c **** *  Byte read from slave.
 610:Generated_Source\PSoC5/I2C_1_MASTER.c **** *
 611:Generated_Source\PSoC5/I2C_1_MASTER.c **** * Side Effects:
 612:Generated_Source\PSoC5/I2C_1_MASTER.c **** *  This function is entered without a "byte complete" bit set in the I2C_CSR
 613:Generated_Source\PSoC5/I2C_1_MASTER.c **** *  register. It does not exit until it is set.
 614:Generated_Source\PSoC5/I2C_1_MASTER.c **** *
 615:Generated_Source\PSoC5/I2C_1_MASTER.c **** * Global variables:
 616:Generated_Source\PSoC5/I2C_1_MASTER.c **** *  I2C_1_state - The global variable used to store a current
 617:Generated_Source\PSoC5/I2C_1_MASTER.c **** *                           state of the software FSM.
 618:Generated_Source\PSoC5/I2C_1_MASTER.c **** *
 619:Generated_Source\PSoC5/I2C_1_MASTER.c **** * Reentrant:
 620:Generated_Source\PSoC5/I2C_1_MASTER.c **** *  No.
 621:Generated_Source\PSoC5/I2C_1_MASTER.c **** *
 622:Generated_Source\PSoC5/I2C_1_MASTER.c **** *******************************************************************************/
 623:Generated_Source\PSoC5/I2C_1_MASTER.c **** uint8 I2C_1_MasterReadByte(uint8 acknNak) 
 624:Generated_Source\PSoC5/I2C_1_MASTER.c **** {
 805              		.loc 1 624 0
 806              		.cfi_startproc
 807              		@ args = 0, pretend = 0, frame = 0
 808              		@ frame_needed = 0, uses_anonymous_args = 0
 809              		@ link register save eliminated.
 810              	.LVL82:
 625:Generated_Source\PSoC5/I2C_1_MASTER.c ****     uint8 theByte;
 626:Generated_Source\PSoC5/I2C_1_MASTER.c **** 
 627:Generated_Source\PSoC5/I2C_1_MASTER.c ****     theByte = 0u;
 628:Generated_Source\PSoC5/I2C_1_MASTER.c **** 
 629:Generated_Source\PSoC5/I2C_1_MASTER.c ****     /* Check if START condition was generated */
 630:Generated_Source\PSoC5/I2C_1_MASTER.c ****     if(I2C_1_CHECK_MASTER_MODE(I2C_1_MCSR_REG))
 811              		.loc 1 630 0
 812 0000 114B     		ldr	r3, .L70
 813 0002 1B78     		ldrb	r3, [r3]	@ zero_extendqisi2
 814 0004 13F0040F 		tst	r3, #4
 815 0008 1BD0     		beq	.L69
 631:Generated_Source\PSoC5/I2C_1_MASTER.c ****     {
 632:Generated_Source\PSoC5/I2C_1_MASTER.c ****         /* When address phase needs to release bus and receive byte,
 633:Generated_Source\PSoC5/I2C_1_MASTER.c ****         * then decide ACK or NACK
 634:Generated_Source\PSoC5/I2C_1_MASTER.c ****         */
 635:Generated_Source\PSoC5/I2C_1_MASTER.c ****         if(I2C_1_SM_MSTR_RD_ADDR == I2C_1_state)
 816              		.loc 1 635 0
 817 000a 104B     		ldr	r3, .L70+4
 818 000c 1B78     		ldrb	r3, [r3]	@ zero_extendqisi2
 819 000e DBB2     		uxtb	r3, r3
 820 0010 492B     		cmp	r3, #73
 821 0012 05D1     		bne	.L67
 636:Generated_Source\PSoC5/I2C_1_MASTER.c ****         {
 637:Generated_Source\PSoC5/I2C_1_MASTER.c ****             I2C_1_READY_TO_READ_MANUAL;
 822              		.loc 1 637 0
 823 0014 0022     		movs	r2, #0
 824 0016 0E4B     		ldr	r3, .L70+8
 825 0018 1A70     		strb	r2, [r3]
 638:Generated_Source\PSoC5/I2C_1_MASTER.c ****             I2C_1_state = I2C_1_SM_MSTR_RD_DATA;
 826              		.loc 1 638 0
 827 001a 4A22     		movs	r2, #74
 828 001c 0B4B     		ldr	r3, .L70+4
ARM GAS  C:\Users\user\AppData\Local\Temp\ccAb76rg.s 			page 27


 829 001e 1A70     		strb	r2, [r3]
 830              	.L67:
 639:Generated_Source\PSoC5/I2C_1_MASTER.c ****         }
 640:Generated_Source\PSoC5/I2C_1_MASTER.c **** 
 641:Generated_Source\PSoC5/I2C_1_MASTER.c ****         /* Wait until data byte has been received */
 642:Generated_Source\PSoC5/I2C_1_MASTER.c ****         while(I2C_1_WAIT_BYTE_COMPLETE(I2C_1_CSR_REG))
 831              		.loc 1 642 0 discriminator 1
 832 0020 0B4B     		ldr	r3, .L70+8
 833 0022 1B78     		ldrb	r3, [r3]	@ zero_extendqisi2
 834 0024 13F0010F 		tst	r3, #1
 835 0028 FAD0     		beq	.L67
 643:Generated_Source\PSoC5/I2C_1_MASTER.c ****         {
 644:Generated_Source\PSoC5/I2C_1_MASTER.c ****         }
 645:Generated_Source\PSoC5/I2C_1_MASTER.c **** 
 646:Generated_Source\PSoC5/I2C_1_MASTER.c ****         theByte = I2C_1_DATA_REG;
 836              		.loc 1 646 0
 837 002a 0A4B     		ldr	r3, .L70+12
 838 002c 1B78     		ldrb	r3, [r3]	@ zero_extendqisi2
 839 002e DBB2     		uxtb	r3, r3
 840              	.LVL83:
 647:Generated_Source\PSoC5/I2C_1_MASTER.c **** 
 648:Generated_Source\PSoC5/I2C_1_MASTER.c ****         /* Command ACK to receive next byte and continue transfer.
 649:Generated_Source\PSoC5/I2C_1_MASTER.c ****         *  Do nothing for NACK. The NACK will be generated by
 650:Generated_Source\PSoC5/I2C_1_MASTER.c ****         *  Stop or ReStart routine.
 651:Generated_Source\PSoC5/I2C_1_MASTER.c ****         */
 652:Generated_Source\PSoC5/I2C_1_MASTER.c ****         if(acknNak != 0u) /* Generate ACK */
 841              		.loc 1 652 0
 842 0030 18B1     		cbz	r0, .L68
 653:Generated_Source\PSoC5/I2C_1_MASTER.c ****         {
 654:Generated_Source\PSoC5/I2C_1_MASTER.c ****             I2C_1_ACK_AND_RECEIVE_MANUAL;
 843              		.loc 1 654 0
 844 0032 1021     		movs	r1, #16
 845 0034 064A     		ldr	r2, .L70+8
 846 0036 1170     		strb	r1, [r2]
 847 0038 04E0     		b	.L65
 848              	.L68:
 655:Generated_Source\PSoC5/I2C_1_MASTER.c ****         }
 656:Generated_Source\PSoC5/I2C_1_MASTER.c ****         else              /* Do nothing for the follwong NACK */
 657:Generated_Source\PSoC5/I2C_1_MASTER.c ****         {
 658:Generated_Source\PSoC5/I2C_1_MASTER.c ****             I2C_1_state = I2C_1_SM_MSTR_HALT;
 849              		.loc 1 658 0
 850 003a 6021     		movs	r1, #96
 851 003c 034A     		ldr	r2, .L70+4
 852 003e 1170     		strb	r1, [r2]
 853 0040 00E0     		b	.L65
 854              	.LVL84:
 855              	.L69:
 627:Generated_Source\PSoC5/I2C_1_MASTER.c **** 
 856              		.loc 1 627 0
 857 0042 0023     		movs	r3, #0
 858              	.LVL85:
 859              	.L65:
 659:Generated_Source\PSoC5/I2C_1_MASTER.c ****         }
 660:Generated_Source\PSoC5/I2C_1_MASTER.c ****     }
 661:Generated_Source\PSoC5/I2C_1_MASTER.c **** 
 662:Generated_Source\PSoC5/I2C_1_MASTER.c ****     return(theByte);
 663:Generated_Source\PSoC5/I2C_1_MASTER.c **** }
ARM GAS  C:\Users\user\AppData\Local\Temp\ccAb76rg.s 			page 28


 860              		.loc 1 663 0
 861 0044 1846     		mov	r0, r3
 862              	.LVL86:
 863 0046 7047     		bx	lr
 864              	.L71:
 865              		.align	2
 866              	.L70:
 867 0048 D9490040 		.word	1073760729
 868 004c 00000000 		.word	I2C_1_state
 869 0050 D7490040 		.word	1073760727
 870 0054 D8490040 		.word	1073760728
 871              		.cfi_endproc
 872              	.LFE6:
 873              		.size	I2C_1_MasterReadByte, .-I2C_1_MasterReadByte
 874              		.section	.text.I2C_1_MasterStatus,"ax",%progbits
 875              		.align	2
 876              		.global	I2C_1_MasterStatus
 877              		.thumb
 878              		.thumb_func
 879              		.type	I2C_1_MasterStatus, %function
 880              	I2C_1_MasterStatus:
 881              	.LFB7:
 664:Generated_Source\PSoC5/I2C_1_MASTER.c **** 
 665:Generated_Source\PSoC5/I2C_1_MASTER.c **** 
 666:Generated_Source\PSoC5/I2C_1_MASTER.c **** /*******************************************************************************
 667:Generated_Source\PSoC5/I2C_1_MASTER.c **** * Function Name: I2C_1_MasterStatus
 668:Generated_Source\PSoC5/I2C_1_MASTER.c **** ********************************************************************************
 669:Generated_Source\PSoC5/I2C_1_MASTER.c **** *
 670:Generated_Source\PSoC5/I2C_1_MASTER.c **** * Summary:
 671:Generated_Source\PSoC5/I2C_1_MASTER.c **** *  Returns the master's communication status.
 672:Generated_Source\PSoC5/I2C_1_MASTER.c **** *
 673:Generated_Source\PSoC5/I2C_1_MASTER.c **** * Parameters:
 674:Generated_Source\PSoC5/I2C_1_MASTER.c **** *  None.
 675:Generated_Source\PSoC5/I2C_1_MASTER.c **** *
 676:Generated_Source\PSoC5/I2C_1_MASTER.c **** * Return:
 677:Generated_Source\PSoC5/I2C_1_MASTER.c **** *  Current status of I2C master.
 678:Generated_Source\PSoC5/I2C_1_MASTER.c **** *
 679:Generated_Source\PSoC5/I2C_1_MASTER.c **** * Global variables:
 680:Generated_Source\PSoC5/I2C_1_MASTER.c **** *  I2C_1_mstrStatus - The global variable used to store a current
 681:Generated_Source\PSoC5/I2C_1_MASTER.c **** *                                status of the I2C Master.
 682:Generated_Source\PSoC5/I2C_1_MASTER.c **** *
 683:Generated_Source\PSoC5/I2C_1_MASTER.c **** *******************************************************************************/
 684:Generated_Source\PSoC5/I2C_1_MASTER.c **** uint8 I2C_1_MasterStatus(void) 
 685:Generated_Source\PSoC5/I2C_1_MASTER.c **** {
 882              		.loc 1 685 0
 883              		.cfi_startproc
 884              		@ args = 0, pretend = 0, frame = 0
 885              		@ frame_needed = 0, uses_anonymous_args = 0
 886              		@ link register save eliminated.
 686:Generated_Source\PSoC5/I2C_1_MASTER.c ****     uint8 status;
 687:Generated_Source\PSoC5/I2C_1_MASTER.c **** 
 688:Generated_Source\PSoC5/I2C_1_MASTER.c ****     I2C_1_DisableInt(); /* Lock from interrupt */
 887              		.loc 1 688 0
 888 0000 4FF40042 		mov	r2, #32768
 889 0004 084B     		ldr	r3, .L74
 890 0006 1A60     		str	r2, [r3]
 689:Generated_Source\PSoC5/I2C_1_MASTER.c **** 
ARM GAS  C:\Users\user\AppData\Local\Temp\ccAb76rg.s 			page 29


 690:Generated_Source\PSoC5/I2C_1_MASTER.c ****     /* Read master status */
 691:Generated_Source\PSoC5/I2C_1_MASTER.c ****     status = I2C_1_mstrStatus;
 891              		.loc 1 691 0
 892 0008 084B     		ldr	r3, .L74+4
 893 000a 1878     		ldrb	r0, [r3]	@ zero_extendqisi2
 894 000c C0B2     		uxtb	r0, r0
 895              	.LVL87:
 692:Generated_Source\PSoC5/I2C_1_MASTER.c **** 
 693:Generated_Source\PSoC5/I2C_1_MASTER.c ****     if (I2C_1_CHECK_SM_MASTER)
 896              		.loc 1 693 0
 897 000e 084B     		ldr	r3, .L74+8
 898 0010 1B78     		ldrb	r3, [r3]	@ zero_extendqisi2
 899 0012 13F0400F 		tst	r3, #64
 900 0016 01D0     		beq	.L73
 694:Generated_Source\PSoC5/I2C_1_MASTER.c ****     {
 695:Generated_Source\PSoC5/I2C_1_MASTER.c ****         /* Set transfer in progress flag in status */
 696:Generated_Source\PSoC5/I2C_1_MASTER.c ****         status |= I2C_1_MSTAT_XFER_INP;
 901              		.loc 1 696 0
 902 0018 40F00400 		orr	r0, r0, #4
 903              	.LVL88:
 904              	.L73:
 697:Generated_Source\PSoC5/I2C_1_MASTER.c ****     }
 698:Generated_Source\PSoC5/I2C_1_MASTER.c **** 
 699:Generated_Source\PSoC5/I2C_1_MASTER.c ****     I2C_1_EnableInt(); /* Release lock */
 905              		.loc 1 699 0
 906 001c 4FF40042 		mov	r2, #32768
 907 0020 044B     		ldr	r3, .L74+12
 908 0022 1A60     		str	r2, [r3]
 700:Generated_Source\PSoC5/I2C_1_MASTER.c **** 
 701:Generated_Source\PSoC5/I2C_1_MASTER.c ****     return (status);
 702:Generated_Source\PSoC5/I2C_1_MASTER.c **** }
 909              		.loc 1 702 0
 910 0024 7047     		bx	lr
 911              	.L75:
 912 0026 00BF     		.align	2
 913              	.L74:
 914 0028 80E100E0 		.word	-536813184
 915 002c 00000000 		.word	I2C_1_mstrStatus
 916 0030 00000000 		.word	I2C_1_state
 917 0034 00E100E0 		.word	-536813312
 918              		.cfi_endproc
 919              	.LFE7:
 920              		.size	I2C_1_MasterStatus, .-I2C_1_MasterStatus
 921              		.section	.text.I2C_1_MasterClearStatus,"ax",%progbits
 922              		.align	2
 923              		.global	I2C_1_MasterClearStatus
 924              		.thumb
 925              		.thumb_func
 926              		.type	I2C_1_MasterClearStatus, %function
 927              	I2C_1_MasterClearStatus:
 928              	.LFB8:
 703:Generated_Source\PSoC5/I2C_1_MASTER.c **** 
 704:Generated_Source\PSoC5/I2C_1_MASTER.c **** 
 705:Generated_Source\PSoC5/I2C_1_MASTER.c **** /*******************************************************************************
 706:Generated_Source\PSoC5/I2C_1_MASTER.c **** * Function Name: I2C_1_MasterClearStatus
 707:Generated_Source\PSoC5/I2C_1_MASTER.c **** ********************************************************************************
 708:Generated_Source\PSoC5/I2C_1_MASTER.c **** *
ARM GAS  C:\Users\user\AppData\Local\Temp\ccAb76rg.s 			page 30


 709:Generated_Source\PSoC5/I2C_1_MASTER.c **** * Summary:
 710:Generated_Source\PSoC5/I2C_1_MASTER.c **** *  Clears all status flags and returns the master status.
 711:Generated_Source\PSoC5/I2C_1_MASTER.c **** *
 712:Generated_Source\PSoC5/I2C_1_MASTER.c **** * Parameters:
 713:Generated_Source\PSoC5/I2C_1_MASTER.c **** *  None.
 714:Generated_Source\PSoC5/I2C_1_MASTER.c **** *
 715:Generated_Source\PSoC5/I2C_1_MASTER.c **** * Return:
 716:Generated_Source\PSoC5/I2C_1_MASTER.c **** *  Current status of I2C master.
 717:Generated_Source\PSoC5/I2C_1_MASTER.c **** *
 718:Generated_Source\PSoC5/I2C_1_MASTER.c **** * Global variables:
 719:Generated_Source\PSoC5/I2C_1_MASTER.c **** *  I2C_1_mstrStatus - The global variable used to store a current
 720:Generated_Source\PSoC5/I2C_1_MASTER.c **** *                                status of the I2C Master.
 721:Generated_Source\PSoC5/I2C_1_MASTER.c **** *
 722:Generated_Source\PSoC5/I2C_1_MASTER.c **** * Reentrant:
 723:Generated_Source\PSoC5/I2C_1_MASTER.c **** *  No.
 724:Generated_Source\PSoC5/I2C_1_MASTER.c **** *
 725:Generated_Source\PSoC5/I2C_1_MASTER.c **** *******************************************************************************/
 726:Generated_Source\PSoC5/I2C_1_MASTER.c **** uint8 I2C_1_MasterClearStatus(void) 
 727:Generated_Source\PSoC5/I2C_1_MASTER.c **** {
 929              		.loc 1 727 0
 930              		.cfi_startproc
 931              		@ args = 0, pretend = 0, frame = 0
 932              		@ frame_needed = 0, uses_anonymous_args = 0
 933              		@ link register save eliminated.
 728:Generated_Source\PSoC5/I2C_1_MASTER.c ****     uint8 status;
 729:Generated_Source\PSoC5/I2C_1_MASTER.c **** 
 730:Generated_Source\PSoC5/I2C_1_MASTER.c ****     I2C_1_DisableInt(); /* Lock from interrupt */
 934              		.loc 1 730 0
 935 0000 4FF40043 		mov	r3, #32768
 936 0004 044A     		ldr	r2, .L77
 937 0006 1360     		str	r3, [r2]
 731:Generated_Source\PSoC5/I2C_1_MASTER.c **** 
 732:Generated_Source\PSoC5/I2C_1_MASTER.c ****     /* Read and clear master status */
 733:Generated_Source\PSoC5/I2C_1_MASTER.c ****     status = I2C_1_mstrStatus;
 938              		.loc 1 733 0
 939 0008 044A     		ldr	r2, .L77+4
 940 000a 1078     		ldrb	r0, [r2]	@ zero_extendqisi2
 941              	.LVL89:
 734:Generated_Source\PSoC5/I2C_1_MASTER.c ****     I2C_1_mstrStatus = I2C_1_MSTAT_CLEAR;
 942              		.loc 1 734 0
 943 000c 0021     		movs	r1, #0
 944 000e 1170     		strb	r1, [r2]
 735:Generated_Source\PSoC5/I2C_1_MASTER.c **** 
 736:Generated_Source\PSoC5/I2C_1_MASTER.c ****     I2C_1_EnableInt(); /* Release lock */
 945              		.loc 1 736 0
 946 0010 034A     		ldr	r2, .L77+8
 947 0012 1360     		str	r3, [r2]
 737:Generated_Source\PSoC5/I2C_1_MASTER.c **** 
 738:Generated_Source\PSoC5/I2C_1_MASTER.c ****     return (status);
 739:Generated_Source\PSoC5/I2C_1_MASTER.c **** }
 948              		.loc 1 739 0
 949 0014 7047     		bx	lr
 950              	.L78:
 951 0016 00BF     		.align	2
 952              	.L77:
 953 0018 80E100E0 		.word	-536813184
 954 001c 00000000 		.word	I2C_1_mstrStatus
ARM GAS  C:\Users\user\AppData\Local\Temp\ccAb76rg.s 			page 31


 955 0020 00E100E0 		.word	-536813312
 956              		.cfi_endproc
 957              	.LFE8:
 958              		.size	I2C_1_MasterClearStatus, .-I2C_1_MasterClearStatus
 959              		.section	.text.I2C_1_MasterGetReadBufSize,"ax",%progbits
 960              		.align	2
 961              		.global	I2C_1_MasterGetReadBufSize
 962              		.thumb
 963              		.thumb_func
 964              		.type	I2C_1_MasterGetReadBufSize, %function
 965              	I2C_1_MasterGetReadBufSize:
 966              	.LFB9:
 740:Generated_Source\PSoC5/I2C_1_MASTER.c **** 
 741:Generated_Source\PSoC5/I2C_1_MASTER.c **** 
 742:Generated_Source\PSoC5/I2C_1_MASTER.c **** /*******************************************************************************
 743:Generated_Source\PSoC5/I2C_1_MASTER.c **** * Function Name: I2C_1_MasterGetReadBufSize
 744:Generated_Source\PSoC5/I2C_1_MASTER.c **** ********************************************************************************
 745:Generated_Source\PSoC5/I2C_1_MASTER.c **** *
 746:Generated_Source\PSoC5/I2C_1_MASTER.c **** * Summary:
 747:Generated_Source\PSoC5/I2C_1_MASTER.c **** *  Returns the amount of bytes that has been transferred with an
 748:Generated_Source\PSoC5/I2C_1_MASTER.c **** *  I2C_MasterReadBuf command.
 749:Generated_Source\PSoC5/I2C_1_MASTER.c **** *
 750:Generated_Source\PSoC5/I2C_1_MASTER.c **** * Parameters:
 751:Generated_Source\PSoC5/I2C_1_MASTER.c **** *  None.
 752:Generated_Source\PSoC5/I2C_1_MASTER.c **** *
 753:Generated_Source\PSoC5/I2C_1_MASTER.c **** * Return:
 754:Generated_Source\PSoC5/I2C_1_MASTER.c **** *  Byte count of transfer. If the transfer is not yet complete, it will return
 755:Generated_Source\PSoC5/I2C_1_MASTER.c **** *  the byte count transferred so far.
 756:Generated_Source\PSoC5/I2C_1_MASTER.c **** *
 757:Generated_Source\PSoC5/I2C_1_MASTER.c **** * Global variables:
 758:Generated_Source\PSoC5/I2C_1_MASTER.c **** *  I2C_1_mstrRdBufIndex - The global variable stores current index
 759:Generated_Source\PSoC5/I2C_1_MASTER.c **** *                                    within the master read buffer.
 760:Generated_Source\PSoC5/I2C_1_MASTER.c **** *
 761:Generated_Source\PSoC5/I2C_1_MASTER.c **** *******************************************************************************/
 762:Generated_Source\PSoC5/I2C_1_MASTER.c **** uint8 I2C_1_MasterGetReadBufSize(void) 
 763:Generated_Source\PSoC5/I2C_1_MASTER.c **** {
 967              		.loc 1 763 0
 968              		.cfi_startproc
 969              		@ args = 0, pretend = 0, frame = 0
 970              		@ frame_needed = 0, uses_anonymous_args = 0
 971              		@ link register save eliminated.
 764:Generated_Source\PSoC5/I2C_1_MASTER.c ****     return (I2C_1_mstrRdBufIndex);
 972              		.loc 1 764 0
 973 0000 014B     		ldr	r3, .L80
 974 0002 1878     		ldrb	r0, [r3]	@ zero_extendqisi2
 765:Generated_Source\PSoC5/I2C_1_MASTER.c **** }
 975              		.loc 1 765 0
 976 0004 7047     		bx	lr
 977              	.L81:
 978 0006 00BF     		.align	2
 979              	.L80:
 980 0008 00000000 		.word	I2C_1_mstrRdBufIndex
 981              		.cfi_endproc
 982              	.LFE9:
 983              		.size	I2C_1_MasterGetReadBufSize, .-I2C_1_MasterGetReadBufSize
 984              		.section	.text.I2C_1_MasterGetWriteBufSize,"ax",%progbits
 985              		.align	2
ARM GAS  C:\Users\user\AppData\Local\Temp\ccAb76rg.s 			page 32


 986              		.global	I2C_1_MasterGetWriteBufSize
 987              		.thumb
 988              		.thumb_func
 989              		.type	I2C_1_MasterGetWriteBufSize, %function
 990              	I2C_1_MasterGetWriteBufSize:
 991              	.LFB10:
 766:Generated_Source\PSoC5/I2C_1_MASTER.c **** 
 767:Generated_Source\PSoC5/I2C_1_MASTER.c **** 
 768:Generated_Source\PSoC5/I2C_1_MASTER.c **** /*******************************************************************************
 769:Generated_Source\PSoC5/I2C_1_MASTER.c **** * Function Name: I2C_1_MasterGetWriteBufSize
 770:Generated_Source\PSoC5/I2C_1_MASTER.c **** ********************************************************************************
 771:Generated_Source\PSoC5/I2C_1_MASTER.c **** *
 772:Generated_Source\PSoC5/I2C_1_MASTER.c **** * Summary:
 773:Generated_Source\PSoC5/I2C_1_MASTER.c **** *  Returns the amount of bytes that has been transferred with an
 774:Generated_Source\PSoC5/I2C_1_MASTER.c **** *  I2C_MasterWriteBuf command.
 775:Generated_Source\PSoC5/I2C_1_MASTER.c **** *
 776:Generated_Source\PSoC5/I2C_1_MASTER.c **** * Parameters:
 777:Generated_Source\PSoC5/I2C_1_MASTER.c **** *  None.
 778:Generated_Source\PSoC5/I2C_1_MASTER.c **** *
 779:Generated_Source\PSoC5/I2C_1_MASTER.c **** * Return:
 780:Generated_Source\PSoC5/I2C_1_MASTER.c **** *  Byte count of transfer. If the transfer is not yet complete, it will return
 781:Generated_Source\PSoC5/I2C_1_MASTER.c **** *  the byte count transferred so far.
 782:Generated_Source\PSoC5/I2C_1_MASTER.c **** *
 783:Generated_Source\PSoC5/I2C_1_MASTER.c **** * Global variables:
 784:Generated_Source\PSoC5/I2C_1_MASTER.c **** *  I2C_1_mstrWrBufIndex -  The global variable used to stores current
 785:Generated_Source\PSoC5/I2C_1_MASTER.c **** *                                     index within master write buffer.
 786:Generated_Source\PSoC5/I2C_1_MASTER.c **** *
 787:Generated_Source\PSoC5/I2C_1_MASTER.c **** *******************************************************************************/
 788:Generated_Source\PSoC5/I2C_1_MASTER.c **** uint8 I2C_1_MasterGetWriteBufSize(void) 
 789:Generated_Source\PSoC5/I2C_1_MASTER.c **** {
 992              		.loc 1 789 0
 993              		.cfi_startproc
 994              		@ args = 0, pretend = 0, frame = 0
 995              		@ frame_needed = 0, uses_anonymous_args = 0
 996              		@ link register save eliminated.
 790:Generated_Source\PSoC5/I2C_1_MASTER.c ****     return (I2C_1_mstrWrBufIndex);
 997              		.loc 1 790 0
 998 0000 014B     		ldr	r3, .L83
 999 0002 1878     		ldrb	r0, [r3]	@ zero_extendqisi2
 791:Generated_Source\PSoC5/I2C_1_MASTER.c **** }
 1000              		.loc 1 791 0
 1001 0004 7047     		bx	lr
 1002              	.L84:
 1003 0006 00BF     		.align	2
 1004              	.L83:
 1005 0008 00000000 		.word	I2C_1_mstrWrBufIndex
 1006              		.cfi_endproc
 1007              	.LFE10:
 1008              		.size	I2C_1_MasterGetWriteBufSize, .-I2C_1_MasterGetWriteBufSize
 1009              		.section	.text.I2C_1_MasterClearReadBuf,"ax",%progbits
 1010              		.align	2
 1011              		.global	I2C_1_MasterClearReadBuf
 1012              		.thumb
 1013              		.thumb_func
 1014              		.type	I2C_1_MasterClearReadBuf, %function
 1015              	I2C_1_MasterClearReadBuf:
 1016              	.LFB11:
ARM GAS  C:\Users\user\AppData\Local\Temp\ccAb76rg.s 			page 33


 792:Generated_Source\PSoC5/I2C_1_MASTER.c **** 
 793:Generated_Source\PSoC5/I2C_1_MASTER.c **** 
 794:Generated_Source\PSoC5/I2C_1_MASTER.c **** /*******************************************************************************
 795:Generated_Source\PSoC5/I2C_1_MASTER.c **** * Function Name: I2C_1_MasterClearReadBuf
 796:Generated_Source\PSoC5/I2C_1_MASTER.c **** ********************************************************************************
 797:Generated_Source\PSoC5/I2C_1_MASTER.c **** *
 798:Generated_Source\PSoC5/I2C_1_MASTER.c **** * Summary:
 799:Generated_Source\PSoC5/I2C_1_MASTER.c **** *  Resets the read buffer pointer back to the first byte in the buffer.
 800:Generated_Source\PSoC5/I2C_1_MASTER.c **** *
 801:Generated_Source\PSoC5/I2C_1_MASTER.c **** * Parameters:
 802:Generated_Source\PSoC5/I2C_1_MASTER.c **** *  None.
 803:Generated_Source\PSoC5/I2C_1_MASTER.c **** *
 804:Generated_Source\PSoC5/I2C_1_MASTER.c **** * Return:
 805:Generated_Source\PSoC5/I2C_1_MASTER.c **** *  None.
 806:Generated_Source\PSoC5/I2C_1_MASTER.c **** *
 807:Generated_Source\PSoC5/I2C_1_MASTER.c **** * Global variables:
 808:Generated_Source\PSoC5/I2C_1_MASTER.c **** *  I2C_1_mstrRdBufIndex - The global variable used to stores current
 809:Generated_Source\PSoC5/I2C_1_MASTER.c **** *                                    index within master read buffer.
 810:Generated_Source\PSoC5/I2C_1_MASTER.c **** *  I2C_1_mstrStatus - The global variable used to store a current
 811:Generated_Source\PSoC5/I2C_1_MASTER.c **** *                                status of the I2C Master.
 812:Generated_Source\PSoC5/I2C_1_MASTER.c **** *
 813:Generated_Source\PSoC5/I2C_1_MASTER.c **** * Reentrant:
 814:Generated_Source\PSoC5/I2C_1_MASTER.c **** *  No.
 815:Generated_Source\PSoC5/I2C_1_MASTER.c **** *
 816:Generated_Source\PSoC5/I2C_1_MASTER.c **** *******************************************************************************/
 817:Generated_Source\PSoC5/I2C_1_MASTER.c **** void I2C_1_MasterClearReadBuf(void) 
 818:Generated_Source\PSoC5/I2C_1_MASTER.c **** {
 1017              		.loc 1 818 0
 1018              		.cfi_startproc
 1019              		@ args = 0, pretend = 0, frame = 0
 1020              		@ frame_needed = 0, uses_anonymous_args = 0
 1021              		@ link register save eliminated.
 819:Generated_Source\PSoC5/I2C_1_MASTER.c ****     I2C_1_DisableInt(); /* Lock from interrupt */
 1022              		.loc 1 819 0
 1023 0000 4FF40042 		mov	r2, #32768
 1024 0004 064B     		ldr	r3, .L86
 1025 0006 1A60     		str	r2, [r3]
 820:Generated_Source\PSoC5/I2C_1_MASTER.c **** 
 821:Generated_Source\PSoC5/I2C_1_MASTER.c ****     I2C_1_mstrRdBufIndex = 0u;
 1026              		.loc 1 821 0
 1027 0008 0021     		movs	r1, #0
 1028 000a 064B     		ldr	r3, .L86+4
 1029 000c 1970     		strb	r1, [r3]
 822:Generated_Source\PSoC5/I2C_1_MASTER.c ****     I2C_1_mstrStatus    &= (uint8) ~I2C_1_MSTAT_RD_CMPLT;
 1030              		.loc 1 822 0
 1031 000e 0649     		ldr	r1, .L86+8
 1032 0010 0B78     		ldrb	r3, [r1]	@ zero_extendqisi2
 1033 0012 03F0FE03 		and	r3, r3, #254
 1034 0016 0B70     		strb	r3, [r1]
 823:Generated_Source\PSoC5/I2C_1_MASTER.c **** 
 824:Generated_Source\PSoC5/I2C_1_MASTER.c ****     I2C_1_EnableInt(); /* Release lock */
 1035              		.loc 1 824 0
 1036 0018 044B     		ldr	r3, .L86+12
 1037 001a 1A60     		str	r2, [r3]
 1038 001c 7047     		bx	lr
 1039              	.L87:
 1040 001e 00BF     		.align	2
ARM GAS  C:\Users\user\AppData\Local\Temp\ccAb76rg.s 			page 34


 1041              	.L86:
 1042 0020 80E100E0 		.word	-536813184
 1043 0024 00000000 		.word	I2C_1_mstrRdBufIndex
 1044 0028 00000000 		.word	I2C_1_mstrStatus
 1045 002c 00E100E0 		.word	-536813312
 1046              		.cfi_endproc
 1047              	.LFE11:
 1048              		.size	I2C_1_MasterClearReadBuf, .-I2C_1_MasterClearReadBuf
 1049              		.section	.text.I2C_1_MasterClearWriteBuf,"ax",%progbits
 1050              		.align	2
 1051              		.global	I2C_1_MasterClearWriteBuf
 1052              		.thumb
 1053              		.thumb_func
 1054              		.type	I2C_1_MasterClearWriteBuf, %function
 1055              	I2C_1_MasterClearWriteBuf:
 1056              	.LFB12:
 825:Generated_Source\PSoC5/I2C_1_MASTER.c **** }
 826:Generated_Source\PSoC5/I2C_1_MASTER.c **** 
 827:Generated_Source\PSoC5/I2C_1_MASTER.c **** 
 828:Generated_Source\PSoC5/I2C_1_MASTER.c **** /*******************************************************************************
 829:Generated_Source\PSoC5/I2C_1_MASTER.c **** * Function Name: I2C_1_MasterClearWriteBuf
 830:Generated_Source\PSoC5/I2C_1_MASTER.c **** ********************************************************************************
 831:Generated_Source\PSoC5/I2C_1_MASTER.c **** *
 832:Generated_Source\PSoC5/I2C_1_MASTER.c **** * Summary:
 833:Generated_Source\PSoC5/I2C_1_MASTER.c **** *  Resets the write buffer pointer back to the first byte in the buffer.
 834:Generated_Source\PSoC5/I2C_1_MASTER.c **** *
 835:Generated_Source\PSoC5/I2C_1_MASTER.c **** * Parameters:
 836:Generated_Source\PSoC5/I2C_1_MASTER.c **** *  None.
 837:Generated_Source\PSoC5/I2C_1_MASTER.c **** *
 838:Generated_Source\PSoC5/I2C_1_MASTER.c **** * Return:
 839:Generated_Source\PSoC5/I2C_1_MASTER.c **** *  None.
 840:Generated_Source\PSoC5/I2C_1_MASTER.c **** *
 841:Generated_Source\PSoC5/I2C_1_MASTER.c **** * Global variables:
 842:Generated_Source\PSoC5/I2C_1_MASTER.c **** *  I2C_1_mstrRdBufIndex - The global variable used to stote current
 843:Generated_Source\PSoC5/I2C_1_MASTER.c **** *                                    index within master read buffer.
 844:Generated_Source\PSoC5/I2C_1_MASTER.c **** *  I2C_1_mstrStatus - The global variable used to store a current
 845:Generated_Source\PSoC5/I2C_1_MASTER.c **** *                                status of the I2C Master.
 846:Generated_Source\PSoC5/I2C_1_MASTER.c **** *
 847:Generated_Source\PSoC5/I2C_1_MASTER.c **** * Reentrant:
 848:Generated_Source\PSoC5/I2C_1_MASTER.c **** *  No.
 849:Generated_Source\PSoC5/I2C_1_MASTER.c **** *
 850:Generated_Source\PSoC5/I2C_1_MASTER.c **** *******************************************************************************/
 851:Generated_Source\PSoC5/I2C_1_MASTER.c **** void I2C_1_MasterClearWriteBuf(void) 
 852:Generated_Source\PSoC5/I2C_1_MASTER.c **** {
 1057              		.loc 1 852 0
 1058              		.cfi_startproc
 1059              		@ args = 0, pretend = 0, frame = 0
 1060              		@ frame_needed = 0, uses_anonymous_args = 0
 1061              		@ link register save eliminated.
 853:Generated_Source\PSoC5/I2C_1_MASTER.c ****     I2C_1_DisableInt(); /* Lock from interrupt */
 1062              		.loc 1 853 0
 1063 0000 4FF40042 		mov	r2, #32768
 1064 0004 064B     		ldr	r3, .L89
 1065 0006 1A60     		str	r2, [r3]
 854:Generated_Source\PSoC5/I2C_1_MASTER.c **** 
 855:Generated_Source\PSoC5/I2C_1_MASTER.c ****     I2C_1_mstrWrBufIndex = 0u;
 1066              		.loc 1 855 0
ARM GAS  C:\Users\user\AppData\Local\Temp\ccAb76rg.s 			page 35


 1067 0008 0021     		movs	r1, #0
 1068 000a 064B     		ldr	r3, .L89+4
 1069 000c 1970     		strb	r1, [r3]
 856:Generated_Source\PSoC5/I2C_1_MASTER.c ****     I2C_1_mstrStatus    &= (uint8) ~I2C_1_MSTAT_WR_CMPLT;
 1070              		.loc 1 856 0
 1071 000e 0649     		ldr	r1, .L89+8
 1072 0010 0B78     		ldrb	r3, [r1]	@ zero_extendqisi2
 1073 0012 03F0FD03 		and	r3, r3, #253
 1074 0016 0B70     		strb	r3, [r1]
 857:Generated_Source\PSoC5/I2C_1_MASTER.c **** 
 858:Generated_Source\PSoC5/I2C_1_MASTER.c ****     I2C_1_EnableInt(); /* Release lock */
 1075              		.loc 1 858 0
 1076 0018 044B     		ldr	r3, .L89+12
 1077 001a 1A60     		str	r2, [r3]
 1078 001c 7047     		bx	lr
 1079              	.L90:
 1080 001e 00BF     		.align	2
 1081              	.L89:
 1082 0020 80E100E0 		.word	-536813184
 1083 0024 00000000 		.word	I2C_1_mstrWrBufIndex
 1084 0028 00000000 		.word	I2C_1_mstrStatus
 1085 002c 00E100E0 		.word	-536813312
 1086              		.cfi_endproc
 1087              	.LFE12:
 1088              		.size	I2C_1_MasterClearWriteBuf, .-I2C_1_MasterClearWriteBuf
 1089              		.comm	I2C_1_mstrWrBufIndex,1,1
 1090              		.comm	I2C_1_mstrWrBufSize,1,1
 1091              		.comm	I2C_1_mstrWrBufPtr,4,4
 1092              		.comm	I2C_1_mstrRdBufIndex,1,1
 1093              		.comm	I2C_1_mstrRdBufSize,1,1
 1094              		.comm	I2C_1_mstrRdBufPtr,4,4
 1095              		.comm	I2C_1_mstrControl,1,1
 1096              		.comm	I2C_1_mstrStatus,1,1
 1097              		.text
 1098              	.Letext0:
 1099              		.file 2 "Generated_Source\\PSoC5\\cytypes.h"
 1100              		.file 3 "Generated_Source\\PSoC5\\I2C_1_PVT.h"