ARM GAS  C:\Users\Admin\AppData\Local\Temp\ccoJ6ZOx.s 			page 1


   1              		.syntax unified
   2              		.cpu cortex-m3
   3              		.fpu softvfp
   4              		.eabi_attribute 20, 1
   5              		.eabi_attribute 21, 1
   6              		.eabi_attribute 23, 3
   7              		.eabi_attribute 24, 1
   8              		.eabi_attribute 25, 1
   9              		.eabi_attribute 26, 1
  10              		.eabi_attribute 30, 1
  11              		.eabi_attribute 34, 1
  12              		.eabi_attribute 18, 4
  13              		.thumb
  14              		.syntax unified
  15              		.file	"I2C_1_INT.c"
  16              		.text
  17              	.Ltext0:
  18              		.cfi_sections	.debug_frame
  19              		.section	.text.I2C_1_ISR,"ax",%progbits
  20              		.align	2
  21              		.global	I2C_1_ISR
  22              		.thumb
  23              		.thumb_func
  24              		.type	I2C_1_ISR, %function
  25              	I2C_1_ISR:
  26              	.LFB0:
  27              		.file 1 "Generated_Source\\PSoC5\\I2C_1_INT.c"
   1:Generated_Source\PSoC5/I2C_1_INT.c **** /*******************************************************************************
   2:Generated_Source\PSoC5/I2C_1_INT.c **** * File Name: I2C_1_INT.c
   3:Generated_Source\PSoC5/I2C_1_INT.c **** * Version 3.50
   4:Generated_Source\PSoC5/I2C_1_INT.c **** *
   5:Generated_Source\PSoC5/I2C_1_INT.c **** * Description:
   6:Generated_Source\PSoC5/I2C_1_INT.c **** *  This file provides the source code of Interrupt Service Routine (ISR)
   7:Generated_Source\PSoC5/I2C_1_INT.c **** *  for the I2C component.
   8:Generated_Source\PSoC5/I2C_1_INT.c **** *
   9:Generated_Source\PSoC5/I2C_1_INT.c **** ********************************************************************************
  10:Generated_Source\PSoC5/I2C_1_INT.c **** * Copyright 2008-2015, Cypress Semiconductor Corporation. All rights reserved.
  11:Generated_Source\PSoC5/I2C_1_INT.c **** * You may use this file only in accordance with the license, terms, conditions,
  12:Generated_Source\PSoC5/I2C_1_INT.c **** * disclaimers, and limitations in the end user license agreement accompanying
  13:Generated_Source\PSoC5/I2C_1_INT.c **** * the software package with which this file was provided.
  14:Generated_Source\PSoC5/I2C_1_INT.c **** *******************************************************************************/
  15:Generated_Source\PSoC5/I2C_1_INT.c **** 
  16:Generated_Source\PSoC5/I2C_1_INT.c **** #include "I2C_1_PVT.h"
  17:Generated_Source\PSoC5/I2C_1_INT.c **** #include "cyapicallbacks.h"
  18:Generated_Source\PSoC5/I2C_1_INT.c **** 
  19:Generated_Source\PSoC5/I2C_1_INT.c **** 
  20:Generated_Source\PSoC5/I2C_1_INT.c **** /*******************************************************************************
  21:Generated_Source\PSoC5/I2C_1_INT.c **** *  Place your includes, defines and code here.
  22:Generated_Source\PSoC5/I2C_1_INT.c **** ********************************************************************************/
  23:Generated_Source\PSoC5/I2C_1_INT.c **** /* `#START I2C_1_ISR_intc` */
  24:Generated_Source\PSoC5/I2C_1_INT.c **** 
  25:Generated_Source\PSoC5/I2C_1_INT.c **** /* `#END` */
  26:Generated_Source\PSoC5/I2C_1_INT.c **** 
  27:Generated_Source\PSoC5/I2C_1_INT.c **** 
  28:Generated_Source\PSoC5/I2C_1_INT.c **** /*******************************************************************************
  29:Generated_Source\PSoC5/I2C_1_INT.c **** * Function Name: I2C_1_ISR
  30:Generated_Source\PSoC5/I2C_1_INT.c **** ********************************************************************************
ARM GAS  C:\Users\Admin\AppData\Local\Temp\ccoJ6ZOx.s 			page 2


  31:Generated_Source\PSoC5/I2C_1_INT.c **** *
  32:Generated_Source\PSoC5/I2C_1_INT.c **** * Summary:
  33:Generated_Source\PSoC5/I2C_1_INT.c **** *  The handler for the I2C interrupt. The slave and master operations are
  34:Generated_Source\PSoC5/I2C_1_INT.c **** *  handled here.
  35:Generated_Source\PSoC5/I2C_1_INT.c **** *
  36:Generated_Source\PSoC5/I2C_1_INT.c **** * Parameters:
  37:Generated_Source\PSoC5/I2C_1_INT.c **** *  None.
  38:Generated_Source\PSoC5/I2C_1_INT.c **** *
  39:Generated_Source\PSoC5/I2C_1_INT.c **** * Return:
  40:Generated_Source\PSoC5/I2C_1_INT.c **** *  None.
  41:Generated_Source\PSoC5/I2C_1_INT.c **** *
  42:Generated_Source\PSoC5/I2C_1_INT.c **** * Reentrant:
  43:Generated_Source\PSoC5/I2C_1_INT.c **** *  No.
  44:Generated_Source\PSoC5/I2C_1_INT.c **** *
  45:Generated_Source\PSoC5/I2C_1_INT.c **** *******************************************************************************/
  46:Generated_Source\PSoC5/I2C_1_INT.c **** CY_ISR(I2C_1_ISR)
  47:Generated_Source\PSoC5/I2C_1_INT.c **** {
  28              		.loc 1 47 0
  29              		.cfi_startproc
  30              		@ args = 0, pretend = 0, frame = 0
  31              		@ frame_needed = 0, uses_anonymous_args = 0
  32 0000 38B5     		push	{r3, r4, r5, lr}
  33              		.cfi_def_cfa_offset 16
  34              		.cfi_offset 3, -16
  35              		.cfi_offset 4, -12
  36              		.cfi_offset 5, -8
  37              		.cfi_offset 14, -4
  48:Generated_Source\PSoC5/I2C_1_INT.c **** #if (I2C_1_MODE_SLAVE_ENABLED)
  49:Generated_Source\PSoC5/I2C_1_INT.c ****    uint8  tmp8;
  50:Generated_Source\PSoC5/I2C_1_INT.c **** #endif  /* (I2C_1_MODE_SLAVE_ENABLED) */
  51:Generated_Source\PSoC5/I2C_1_INT.c **** 
  52:Generated_Source\PSoC5/I2C_1_INT.c ****     uint8  tmpCsr;
  53:Generated_Source\PSoC5/I2C_1_INT.c ****     
  54:Generated_Source\PSoC5/I2C_1_INT.c **** #ifdef I2C_1_ISR_ENTRY_CALLBACK
  55:Generated_Source\PSoC5/I2C_1_INT.c ****     I2C_1_ISR_EntryCallback();
  56:Generated_Source\PSoC5/I2C_1_INT.c **** #endif /* I2C_1_ISR_ENTRY_CALLBACK */
  57:Generated_Source\PSoC5/I2C_1_INT.c ****     
  58:Generated_Source\PSoC5/I2C_1_INT.c **** 
  59:Generated_Source\PSoC5/I2C_1_INT.c **** #if(I2C_1_TIMEOUT_FF_ENABLED)
  60:Generated_Source\PSoC5/I2C_1_INT.c ****     if(0u != I2C_1_TimeoutGetStatus())
  61:Generated_Source\PSoC5/I2C_1_INT.c ****     {
  62:Generated_Source\PSoC5/I2C_1_INT.c ****         I2C_1_TimeoutReset();
  63:Generated_Source\PSoC5/I2C_1_INT.c ****         I2C_1_state = I2C_1_SM_EXIT_IDLE;
  64:Generated_Source\PSoC5/I2C_1_INT.c ****         /* I2C_1_CSR_REG should be cleared after reset */
  65:Generated_Source\PSoC5/I2C_1_INT.c ****     }
  66:Generated_Source\PSoC5/I2C_1_INT.c **** #endif /* (I2C_1_TIMEOUT_FF_ENABLED) */
  67:Generated_Source\PSoC5/I2C_1_INT.c **** 
  68:Generated_Source\PSoC5/I2C_1_INT.c **** 
  69:Generated_Source\PSoC5/I2C_1_INT.c ****     tmpCsr = I2C_1_CSR_REG;      /* Make copy as interrupts clear */
  38              		.loc 1 69 0
  39 0002 A54B     		ldr	r3, .L46
  40 0004 1C78     		ldrb	r4, [r3]	@ zero_extendqisi2
  41 0006 E4B2     		uxtb	r4, r4
  42              	.LVL0:
  70:Generated_Source\PSoC5/I2C_1_INT.c **** 
  71:Generated_Source\PSoC5/I2C_1_INT.c **** #if(I2C_1_MODE_MULTI_MASTER_SLAVE_ENABLED)
  72:Generated_Source\PSoC5/I2C_1_INT.c ****     if(I2C_1_CHECK_START_GEN(I2C_1_MCSR_REG))
ARM GAS  C:\Users\Admin\AppData\Local\Temp\ccoJ6ZOx.s 			page 3


  43              		.loc 1 72 0
  44 0008 0233     		adds	r3, r3, #2
  45 000a 1B78     		ldrb	r3, [r3]	@ zero_extendqisi2
  46 000c 13F0010F 		tst	r3, #1
  47 0010 18D0     		beq	.L2
  48              		.loc 1 72 0 is_stmt 0 discriminator 1
  49 0012 A24B     		ldr	r3, .L46+4
  50 0014 1B78     		ldrb	r3, [r3]	@ zero_extendqisi2
  51 0016 13F0040F 		tst	r3, #4
  52 001a 13D1     		bne	.L2
  73:Generated_Source\PSoC5/I2C_1_INT.c ****     {
  74:Generated_Source\PSoC5/I2C_1_INT.c ****         I2C_1_CLEAR_START_GEN;
  53              		.loc 1 74 0 is_stmt 1
  54 001c 9F4A     		ldr	r2, .L46+4
  55 001e 1378     		ldrb	r3, [r2]	@ zero_extendqisi2
  56 0020 03F0FE03 		and	r3, r3, #254
  57 0024 1370     		strb	r3, [r2]
  75:Generated_Source\PSoC5/I2C_1_INT.c **** 
  76:Generated_Source\PSoC5/I2C_1_INT.c ****         /* Set transfer complete and error flags */
  77:Generated_Source\PSoC5/I2C_1_INT.c ****         I2C_1_mstrStatus |= (I2C_1_MSTAT_ERR_XFER |
  78:Generated_Source\PSoC5/I2C_1_INT.c ****                                         I2C_1_GET_MSTAT_CMPLT);
  58              		.loc 1 78 0
  59 0026 9E4B     		ldr	r3, .L46+8
  60 0028 1B78     		ldrb	r3, [r3]	@ zero_extendqisi2
  77:Generated_Source\PSoC5/I2C_1_INT.c ****                                         I2C_1_GET_MSTAT_CMPLT);
  61              		.loc 1 77 0
  62 002a 13F0080F 		tst	r3, #8
  63 002e 01D0     		beq	.L41
  64 0030 8123     		movs	r3, #129
  65 0032 00E0     		b	.L3
  66              	.L41:
  67 0034 8223     		movs	r3, #130
  68              	.L3:
  77:Generated_Source\PSoC5/I2C_1_INT.c ****                                         I2C_1_GET_MSTAT_CMPLT);
  69              		.loc 1 77 0 is_stmt 0 discriminator 4
  70 0036 9B4A     		ldr	r2, .L46+12
  71 0038 1178     		ldrb	r1, [r2]	@ zero_extendqisi2
  72 003a 0B43     		orrs	r3, r3, r1
  73 003c 1370     		strb	r3, [r2]
  79:Generated_Source\PSoC5/I2C_1_INT.c **** 
  80:Generated_Source\PSoC5/I2C_1_INT.c ****         /* Slave was addressed */
  81:Generated_Source\PSoC5/I2C_1_INT.c ****         I2C_1_state = I2C_1_SM_SLAVE;
  74              		.loc 1 81 0 is_stmt 1 discriminator 4
  75 003e 1022     		movs	r2, #16
  76 0040 974B     		ldr	r3, .L46+8
  77 0042 1A70     		strb	r2, [r3]
  78              	.L2:
  82:Generated_Source\PSoC5/I2C_1_INT.c ****     }
  83:Generated_Source\PSoC5/I2C_1_INT.c **** #endif /* (I2C_1_MODE_MULTI_MASTER_SLAVE_ENABLED) */
  84:Generated_Source\PSoC5/I2C_1_INT.c **** 
  85:Generated_Source\PSoC5/I2C_1_INT.c **** 
  86:Generated_Source\PSoC5/I2C_1_INT.c **** #if(I2C_1_MODE_MULTI_MASTER_ENABLED)
  87:Generated_Source\PSoC5/I2C_1_INT.c ****     if(I2C_1_CHECK_LOST_ARB(tmpCsr))
  79              		.loc 1 87 0
  80 0044 14F0400F 		tst	r4, #64
  81 0048 1CD0     		beq	.L4
  88:Generated_Source\PSoC5/I2C_1_INT.c ****     {
ARM GAS  C:\Users\Admin\AppData\Local\Temp\ccoJ6ZOx.s 			page 4


  89:Generated_Source\PSoC5/I2C_1_INT.c ****         /* Set errors */
  90:Generated_Source\PSoC5/I2C_1_INT.c ****         I2C_1_mstrStatus |= (I2C_1_MSTAT_ERR_XFER     |
  91:Generated_Source\PSoC5/I2C_1_INT.c ****                                         I2C_1_MSTAT_ERR_ARB_LOST |
  92:Generated_Source\PSoC5/I2C_1_INT.c ****                                         I2C_1_GET_MSTAT_CMPLT);
  82              		.loc 1 92 0
  83 004a 954B     		ldr	r3, .L46+8
  84 004c 1B78     		ldrb	r3, [r3]	@ zero_extendqisi2
  91:Generated_Source\PSoC5/I2C_1_INT.c ****                                         I2C_1_GET_MSTAT_CMPLT);
  85              		.loc 1 91 0
  86 004e 13F0080F 		tst	r3, #8
  87 0052 01D0     		beq	.L42
  88 0054 C123     		movs	r3, #193
  89 0056 00E0     		b	.L5
  90              	.L42:
  91 0058 C223     		movs	r3, #194
  92              	.L5:
  90:Generated_Source\PSoC5/I2C_1_INT.c ****                                         I2C_1_MSTAT_ERR_ARB_LOST |
  93              		.loc 1 90 0 discriminator 4
  94 005a 924A     		ldr	r2, .L46+12
  95 005c 1178     		ldrb	r1, [r2]	@ zero_extendqisi2
  96 005e 0B43     		orrs	r3, r3, r1
  97 0060 1370     		strb	r3, [r2]
  93:Generated_Source\PSoC5/I2C_1_INT.c **** 
  94:Generated_Source\PSoC5/I2C_1_INT.c ****         I2C_1_DISABLE_INT_ON_STOP; /* Interrupt on Stop is enabled by write */
  98              		.loc 1 94 0 discriminator 4
  99 0062 914A     		ldr	r2, .L46+16
 100 0064 1378     		ldrb	r3, [r2]	@ zero_extendqisi2
 101 0066 03F0EF03 		and	r3, r3, #239
 102 006a 1370     		strb	r3, [r2]
  95:Generated_Source\PSoC5/I2C_1_INT.c **** 
  96:Generated_Source\PSoC5/I2C_1_INT.c ****         #if(I2C_1_MODE_MULTI_MASTER_SLAVE_ENABLED)
  97:Generated_Source\PSoC5/I2C_1_INT.c ****             if(I2C_1_CHECK_ADDRESS_STS(tmpCsr))
 103              		.loc 1 97 0 discriminator 4
 104 006c 14F0080F 		tst	r4, #8
 105 0070 03D0     		beq	.L6
  98:Generated_Source\PSoC5/I2C_1_INT.c ****             {
  99:Generated_Source\PSoC5/I2C_1_INT.c ****                 /* Slave was addressed */
 100:Generated_Source\PSoC5/I2C_1_INT.c ****                 I2C_1_state = I2C_1_SM_SLAVE;
 106              		.loc 1 100 0
 107 0072 1022     		movs	r2, #16
 108 0074 8A4B     		ldr	r3, .L46+8
 109 0076 1A70     		strb	r2, [r3]
 110 0078 04E0     		b	.L4
 111              	.L6:
 101:Generated_Source\PSoC5/I2C_1_INT.c ****             }
 102:Generated_Source\PSoC5/I2C_1_INT.c ****             else
 103:Generated_Source\PSoC5/I2C_1_INT.c ****             {
 104:Generated_Source\PSoC5/I2C_1_INT.c ****                 I2C_1_BUS_RELEASE;
 112              		.loc 1 104 0
 113 007a 0023     		movs	r3, #0
 114 007c 864A     		ldr	r2, .L46
 115 007e 1370     		strb	r3, [r2]
 105:Generated_Source\PSoC5/I2C_1_INT.c **** 
 106:Generated_Source\PSoC5/I2C_1_INT.c ****                 I2C_1_state = I2C_1_SM_EXIT_IDLE;
 116              		.loc 1 106 0
 117 0080 874A     		ldr	r2, .L46+8
 118 0082 1370     		strb	r3, [r2]
ARM GAS  C:\Users\Admin\AppData\Local\Temp\ccoJ6ZOx.s 			page 5


 119              	.L4:
 107:Generated_Source\PSoC5/I2C_1_INT.c ****             }
 108:Generated_Source\PSoC5/I2C_1_INT.c ****         #else
 109:Generated_Source\PSoC5/I2C_1_INT.c ****             I2C_1_BUS_RELEASE;
 110:Generated_Source\PSoC5/I2C_1_INT.c **** 
 111:Generated_Source\PSoC5/I2C_1_INT.c ****             I2C_1_state = I2C_1_SM_EXIT_IDLE;
 112:Generated_Source\PSoC5/I2C_1_INT.c **** 
 113:Generated_Source\PSoC5/I2C_1_INT.c ****         #endif /* (I2C_1_MODE_MULTI_MASTER_SLAVE_ENABLED) */
 114:Generated_Source\PSoC5/I2C_1_INT.c ****     }
 115:Generated_Source\PSoC5/I2C_1_INT.c **** #endif /* (I2C_1_MODE_MULTI_MASTER_ENABLED) */
 116:Generated_Source\PSoC5/I2C_1_INT.c **** 
 117:Generated_Source\PSoC5/I2C_1_INT.c ****     /* Check for master operation mode */
 118:Generated_Source\PSoC5/I2C_1_INT.c ****     if(I2C_1_CHECK_SM_MASTER)
 120              		.loc 1 118 0
 121 0084 864B     		ldr	r3, .L46+8
 122 0086 1B78     		ldrb	r3, [r3]	@ zero_extendqisi2
 123 0088 13F0400F 		tst	r3, #64
 124 008c 00F05781 		beq	.L7
 119:Generated_Source\PSoC5/I2C_1_INT.c ****     {
 120:Generated_Source\PSoC5/I2C_1_INT.c ****     #if(I2C_1_MODE_MASTER_ENABLED)
 121:Generated_Source\PSoC5/I2C_1_INT.c ****         if(I2C_1_CHECK_BYTE_COMPLETE(tmpCsr))
 125              		.loc 1 121 0
 126 0090 14F0010F 		tst	r4, #1
 127 0094 00F03A81 		beq	.L8
 122:Generated_Source\PSoC5/I2C_1_INT.c ****         {
 123:Generated_Source\PSoC5/I2C_1_INT.c ****             switch (I2C_1_state)
 128              		.loc 1 123 0
 129 0098 814B     		ldr	r3, .L46+8
 130 009a 1B78     		ldrb	r3, [r3]	@ zero_extendqisi2
 131 009c 453B     		subs	r3, r3, #69
 132 009e 052B     		cmp	r3, #5
 133 00a0 00F23181 		bhi	.L9
 134 00a4 DFE813F0 		tbh	[pc, r3, lsl #1]
 135              	.L11:
 136 00a8 0600     		.2byte	(.L10-.L11)/2
 137 00aa 8200     		.2byte	(.L12-.L11)/2
 138 00ac 2F01     		.2byte	(.L9-.L11)/2
 139 00ae 2F01     		.2byte	(.L9-.L11)/2
 140 00b0 0600     		.2byte	(.L10-.L11)/2
 141 00b2 DF00     		.2byte	(.L13-.L11)/2
 142              		.p2align 1
 143              	.L10:
 124:Generated_Source\PSoC5/I2C_1_INT.c ****             {
 125:Generated_Source\PSoC5/I2C_1_INT.c ****             case I2C_1_SM_MSTR_WR_ADDR:  /* After address is sent, write data */
 126:Generated_Source\PSoC5/I2C_1_INT.c ****             case I2C_1_SM_MSTR_RD_ADDR:  /* After address is sent, read data */
 127:Generated_Source\PSoC5/I2C_1_INT.c **** 
 128:Generated_Source\PSoC5/I2C_1_INT.c ****                 tmpCsr &= ((uint8) ~I2C_1_CSR_STOP_STATUS); /* Clear Stop bit history on address ph
 144              		.loc 1 128 0
 145 00b4 04F0DF05 		and	r5, r4, #223
 146              	.LVL1:
 129:Generated_Source\PSoC5/I2C_1_INT.c **** 
 130:Generated_Source\PSoC5/I2C_1_INT.c ****                 if(I2C_1_CHECK_ADDR_ACK(tmpCsr))
 147              		.loc 1 130 0
 148 00b8 04F00A04 		and	r4, r4, #10
 149 00bc 082C     		cmp	r4, #8
 150 00be 42D1     		bne	.L14
 131:Generated_Source\PSoC5/I2C_1_INT.c ****                 {
ARM GAS  C:\Users\Admin\AppData\Local\Temp\ccoJ6ZOx.s 			page 6


 132:Generated_Source\PSoC5/I2C_1_INT.c ****                     /* Setup for transmit or receive of data */
 133:Generated_Source\PSoC5/I2C_1_INT.c ****                     if(I2C_1_state == I2C_1_SM_MSTR_WR_ADDR)   /* TRANSMIT data */
 151              		.loc 1 133 0
 152 00c0 774B     		ldr	r3, .L46+8
 153 00c2 1B78     		ldrb	r3, [r3]	@ zero_extendqisi2
 154 00c4 DBB2     		uxtb	r3, r3
 155 00c6 452B     		cmp	r3, #69
 156 00c8 35D1     		bne	.L15
 134:Generated_Source\PSoC5/I2C_1_INT.c ****                     {
 135:Generated_Source\PSoC5/I2C_1_INT.c ****                         /* Check if at least one byte to transfer */
 136:Generated_Source\PSoC5/I2C_1_INT.c ****                         if(I2C_1_mstrWrBufSize > 0u)
 157              		.loc 1 136 0
 158 00ca 784B     		ldr	r3, .L46+20
 159 00cc 1B78     		ldrb	r3, [r3]	@ zero_extendqisi2
 160 00ce 13F0FF0F 		tst	r3, #255
 161 00d2 10D0     		beq	.L16
 137:Generated_Source\PSoC5/I2C_1_INT.c ****                         {
 138:Generated_Source\PSoC5/I2C_1_INT.c ****                             /* Load the 1st data byte */
 139:Generated_Source\PSoC5/I2C_1_INT.c ****                             I2C_1_DATA_REG = I2C_1_mstrWrBufPtr[0u];
 162              		.loc 1 139 0
 163 00d4 764B     		ldr	r3, .L46+24
 164 00d6 1B68     		ldr	r3, [r3]
 165 00d8 1B78     		ldrb	r3, [r3]	@ zero_extendqisi2
 166 00da DBB2     		uxtb	r3, r3
 167 00dc 754A     		ldr	r2, .L46+28
 168 00de 1370     		strb	r3, [r2]
 140:Generated_Source\PSoC5/I2C_1_INT.c ****                             I2C_1_TRANSMIT_DATA;
 169              		.loc 1 140 0
 170 00e0 0422     		movs	r2, #4
 171 00e2 6D4B     		ldr	r3, .L46
 172 00e4 1A70     		strb	r2, [r3]
 141:Generated_Source\PSoC5/I2C_1_INT.c ****                             I2C_1_mstrWrBufIndex = 1u;   /* Set index to 2nd element */
 173              		.loc 1 141 0
 174 00e6 0122     		movs	r2, #1
 175 00e8 734B     		ldr	r3, .L46+32
 176 00ea 1A70     		strb	r2, [r3]
 142:Generated_Source\PSoC5/I2C_1_INT.c **** 
 143:Generated_Source\PSoC5/I2C_1_INT.c ****                             /* Set transmit state until done */
 144:Generated_Source\PSoC5/I2C_1_INT.c ****                             I2C_1_state = I2C_1_SM_MSTR_WR_DATA;
 177              		.loc 1 144 0
 178 00ec 4622     		movs	r2, #70
 179 00ee 6C4B     		ldr	r3, .L46+8
 180 00f0 1A70     		strb	r2, [r3]
 128:Generated_Source\PSoC5/I2C_1_INT.c **** 
 181              		.loc 1 128 0
 182 00f2 2C46     		mov	r4, r5
 183 00f4 0AE1     		b	.L8
 184              	.L16:
 145:Generated_Source\PSoC5/I2C_1_INT.c ****                         }
 146:Generated_Source\PSoC5/I2C_1_INT.c ****                         /* End of buffer: complete writing */
 147:Generated_Source\PSoC5/I2C_1_INT.c ****                         else if(I2C_1_CHECK_NO_STOP(I2C_1_mstrControl))
 185              		.loc 1 147 0
 186 00f6 714B     		ldr	r3, .L46+36
 187 00f8 1B78     		ldrb	r3, [r3]	@ zero_extendqisi2
 188 00fa 13F0020F 		tst	r3, #2
 189 00fe 0DD0     		beq	.L17
 148:Generated_Source\PSoC5/I2C_1_INT.c ****                         {
ARM GAS  C:\Users\Admin\AppData\Local\Temp\ccoJ6ZOx.s 			page 7


 149:Generated_Source\PSoC5/I2C_1_INT.c ****                             /* Set write complete and master halted */
 150:Generated_Source\PSoC5/I2C_1_INT.c ****                             I2C_1_mstrStatus |= (I2C_1_MSTAT_XFER_HALT |
 190              		.loc 1 150 0
 191 0100 684A     		ldr	r2, .L46+12
 192 0102 1378     		ldrb	r3, [r2]	@ zero_extendqisi2
 193 0104 43F00A03 		orr	r3, r3, #10
 194 0108 1370     		strb	r3, [r2]
 151:Generated_Source\PSoC5/I2C_1_INT.c ****                                                             I2C_1_MSTAT_WR_CMPLT);
 152:Generated_Source\PSoC5/I2C_1_INT.c **** 
 153:Generated_Source\PSoC5/I2C_1_INT.c ****                             I2C_1_state = I2C_1_SM_MSTR_HALT; /* Expect ReStart */
 195              		.loc 1 153 0
 196 010a 6022     		movs	r2, #96
 197 010c 644B     		ldr	r3, .L46+8
 198 010e 1A70     		strb	r2, [r3]
 154:Generated_Source\PSoC5/I2C_1_INT.c ****                             I2C_1_DisableInt();
 199              		.loc 1 154 0
 200 0110 4FF40042 		mov	r2, #32768
 201 0114 6A4B     		ldr	r3, .L46+40
 202 0116 1A60     		str	r2, [r3]
 128:Generated_Source\PSoC5/I2C_1_INT.c **** 
 203              		.loc 1 128 0
 204 0118 2C46     		mov	r4, r5
 205 011a F7E0     		b	.L8
 206              	.L17:
 155:Generated_Source\PSoC5/I2C_1_INT.c ****                         }
 156:Generated_Source\PSoC5/I2C_1_INT.c ****                         else
 157:Generated_Source\PSoC5/I2C_1_INT.c ****                         {
 158:Generated_Source\PSoC5/I2C_1_INT.c ****                             I2C_1_ENABLE_INT_ON_STOP; /* Enable interrupt on Stop, to catch it */
 207              		.loc 1 158 0
 208 011c 624A     		ldr	r2, .L46+16
 209 011e 1378     		ldrb	r3, [r2]	@ zero_extendqisi2
 210 0120 43F01003 		orr	r3, r3, #16
 211 0124 1370     		strb	r3, [r2]
 159:Generated_Source\PSoC5/I2C_1_INT.c ****                             I2C_1_GENERATE_STOP;
 212              		.loc 1 159 0
 213 0126 1022     		movs	r2, #16
 214 0128 5C4B     		ldr	r3, .L46+4
 215 012a 1A70     		strb	r2, [r3]
 216 012c 0422     		movs	r2, #4
 217 012e 023B     		subs	r3, r3, #2
 218 0130 1A70     		strb	r2, [r3]
 128:Generated_Source\PSoC5/I2C_1_INT.c **** 
 219              		.loc 1 128 0
 220 0132 2C46     		mov	r4, r5
 221 0134 EAE0     		b	.L8
 222              	.L15:
 160:Generated_Source\PSoC5/I2C_1_INT.c ****                         }
 161:Generated_Source\PSoC5/I2C_1_INT.c ****                     }
 162:Generated_Source\PSoC5/I2C_1_INT.c ****                     else  /* Master receive data */
 163:Generated_Source\PSoC5/I2C_1_INT.c ****                     {
 164:Generated_Source\PSoC5/I2C_1_INT.c ****                         I2C_1_READY_TO_READ; /* Release bus to read data */
 223              		.loc 1 164 0
 224 0136 0022     		movs	r2, #0
 225 0138 574B     		ldr	r3, .L46
 226 013a 1A70     		strb	r2, [r3]
 165:Generated_Source\PSoC5/I2C_1_INT.c **** 
 166:Generated_Source\PSoC5/I2C_1_INT.c ****                         I2C_1_state  = I2C_1_SM_MSTR_RD_DATA;
ARM GAS  C:\Users\Admin\AppData\Local\Temp\ccoJ6ZOx.s 			page 8


 227              		.loc 1 166 0
 228 013c 4A22     		movs	r2, #74
 229 013e 584B     		ldr	r3, .L46+8
 230 0140 1A70     		strb	r2, [r3]
 128:Generated_Source\PSoC5/I2C_1_INT.c **** 
 231              		.loc 1 128 0
 232 0142 2C46     		mov	r4, r5
 233 0144 E2E0     		b	.L8
 234              	.L14:
 167:Generated_Source\PSoC5/I2C_1_INT.c ****                     }
 168:Generated_Source\PSoC5/I2C_1_INT.c ****                 }
 169:Generated_Source\PSoC5/I2C_1_INT.c ****                 /* Address is NACKed */
 170:Generated_Source\PSoC5/I2C_1_INT.c ****                 else if(I2C_1_CHECK_ADDR_NAK(tmpCsr))
 235              		.loc 1 170 0
 236 0146 0A2C     		cmp	r4, #10
 237 0148 2BD1     		bne	.L18
 171:Generated_Source\PSoC5/I2C_1_INT.c ****                 {
 172:Generated_Source\PSoC5/I2C_1_INT.c ****                     /* Set Address NAK error */
 173:Generated_Source\PSoC5/I2C_1_INT.c ****                     I2C_1_mstrStatus |= (I2C_1_MSTAT_ERR_XFER |
 238              		.loc 1 173 0
 239 014a 564A     		ldr	r2, .L46+12
 240 014c 1378     		ldrb	r3, [r2]	@ zero_extendqisi2
 241 014e 43F0A003 		orr	r3, r3, #160
 242 0152 1370     		strb	r3, [r2]
 174:Generated_Source\PSoC5/I2C_1_INT.c ****                                                     I2C_1_MSTAT_ERR_ADDR_NAK);
 175:Generated_Source\PSoC5/I2C_1_INT.c **** 
 176:Generated_Source\PSoC5/I2C_1_INT.c ****                     if(I2C_1_CHECK_NO_STOP(I2C_1_mstrControl))
 243              		.loc 1 176 0
 244 0154 594B     		ldr	r3, .L46+36
 245 0156 1B78     		ldrb	r3, [r3]	@ zero_extendqisi2
 246 0158 13F0020F 		tst	r3, #2
 247 015c 14D0     		beq	.L19
 177:Generated_Source\PSoC5/I2C_1_INT.c ****                     {
 178:Generated_Source\PSoC5/I2C_1_INT.c ****                         I2C_1_mstrStatus |= (I2C_1_MSTAT_XFER_HALT |
 179:Generated_Source\PSoC5/I2C_1_INT.c ****                                                         I2C_1_GET_MSTAT_CMPLT);
 248              		.loc 1 179 0
 249 015e 504B     		ldr	r3, .L46+8
 250 0160 1B78     		ldrb	r3, [r3]	@ zero_extendqisi2
 178:Generated_Source\PSoC5/I2C_1_INT.c ****                                                         I2C_1_GET_MSTAT_CMPLT);
 251              		.loc 1 178 0
 252 0162 13F0080F 		tst	r3, #8
 253 0166 01D0     		beq	.L43
 254 0168 0923     		movs	r3, #9
 255 016a 00E0     		b	.L20
 256              	.L43:
 257 016c 0A23     		movs	r3, #10
 258              	.L20:
 178:Generated_Source\PSoC5/I2C_1_INT.c ****                                                         I2C_1_GET_MSTAT_CMPLT);
 259              		.loc 1 178 0 is_stmt 0 discriminator 4
 260 016e 4D4A     		ldr	r2, .L46+12
 261 0170 1178     		ldrb	r1, [r2]	@ zero_extendqisi2
 262 0172 0B43     		orrs	r3, r3, r1
 263 0174 1370     		strb	r3, [r2]
 180:Generated_Source\PSoC5/I2C_1_INT.c **** 
 181:Generated_Source\PSoC5/I2C_1_INT.c ****                         I2C_1_state = I2C_1_SM_MSTR_HALT; /* Expect RESTART */
 264              		.loc 1 181 0 is_stmt 1 discriminator 4
 265 0176 6022     		movs	r2, #96
ARM GAS  C:\Users\Admin\AppData\Local\Temp\ccoJ6ZOx.s 			page 9


 266 0178 494B     		ldr	r3, .L46+8
 267 017a 1A70     		strb	r2, [r3]
 182:Generated_Source\PSoC5/I2C_1_INT.c ****                         I2C_1_DisableInt();
 268              		.loc 1 182 0 discriminator 4
 269 017c 4FF40042 		mov	r2, #32768
 270 0180 4F4B     		ldr	r3, .L46+40
 271 0182 1A60     		str	r2, [r3]
 128:Generated_Source\PSoC5/I2C_1_INT.c **** 
 272              		.loc 1 128 0 discriminator 4
 273 0184 2C46     		mov	r4, r5
 274 0186 C1E0     		b	.L8
 275              	.L19:
 183:Generated_Source\PSoC5/I2C_1_INT.c ****                     }
 184:Generated_Source\PSoC5/I2C_1_INT.c ****                     else  /* Do normal Stop */
 185:Generated_Source\PSoC5/I2C_1_INT.c ****                     {
 186:Generated_Source\PSoC5/I2C_1_INT.c ****                         I2C_1_ENABLE_INT_ON_STOP; /* Enable interrupt on Stop, to catch it */
 276              		.loc 1 186 0
 277 0188 474A     		ldr	r2, .L46+16
 278 018a 1378     		ldrb	r3, [r2]	@ zero_extendqisi2
 279 018c 43F01003 		orr	r3, r3, #16
 280 0190 1370     		strb	r3, [r2]
 187:Generated_Source\PSoC5/I2C_1_INT.c ****                         I2C_1_GENERATE_STOP;
 281              		.loc 1 187 0
 282 0192 1022     		movs	r2, #16
 283 0194 414B     		ldr	r3, .L46+4
 284 0196 1A70     		strb	r2, [r3]
 285 0198 0422     		movs	r2, #4
 286 019a 023B     		subs	r3, r3, #2
 287 019c 1A70     		strb	r2, [r3]
 128:Generated_Source\PSoC5/I2C_1_INT.c **** 
 288              		.loc 1 128 0
 289 019e 2C46     		mov	r4, r5
 290 01a0 B4E0     		b	.L8
 291              	.L18:
 188:Generated_Source\PSoC5/I2C_1_INT.c ****                     }
 189:Generated_Source\PSoC5/I2C_1_INT.c ****                 }
 190:Generated_Source\PSoC5/I2C_1_INT.c ****                 else
 191:Generated_Source\PSoC5/I2C_1_INT.c ****                 {
 192:Generated_Source\PSoC5/I2C_1_INT.c ****                     /* Address phase is not set for some reason: error */
 193:Generated_Source\PSoC5/I2C_1_INT.c ****                     #if(I2C_1_TIMEOUT_ENABLED)
 194:Generated_Source\PSoC5/I2C_1_INT.c ****                         /* Exit interrupt to take chance for timeout timer to handle this case */
 195:Generated_Source\PSoC5/I2C_1_INT.c ****                         I2C_1_DisableInt();
 196:Generated_Source\PSoC5/I2C_1_INT.c ****                         I2C_1_ClearPendingInt();
 197:Generated_Source\PSoC5/I2C_1_INT.c ****                     #else
 198:Generated_Source\PSoC5/I2C_1_INT.c ****                         /* Block execution flow: unexpected condition */
 199:Generated_Source\PSoC5/I2C_1_INT.c ****                         CYASSERT(0u != 0u);
 292              		.loc 1 199 0 discriminator 1
 293 01a2 0020     		movs	r0, #0
 294 01a4 FFF7FEFF 		bl	CyHalt
 295              	.LVL2:
 128:Generated_Source\PSoC5/I2C_1_INT.c **** 
 296              		.loc 1 128 0 discriminator 1
 297 01a8 2C46     		mov	r4, r5
 298 01aa AFE0     		b	.L8
 299              	.LVL3:
 300              	.L12:
 200:Generated_Source\PSoC5/I2C_1_INT.c ****                     #endif /* (I2C_1_TIMEOUT_ENABLED) */
ARM GAS  C:\Users\Admin\AppData\Local\Temp\ccoJ6ZOx.s 			page 10


 201:Generated_Source\PSoC5/I2C_1_INT.c ****                 }
 202:Generated_Source\PSoC5/I2C_1_INT.c ****                 break;
 203:Generated_Source\PSoC5/I2C_1_INT.c **** 
 204:Generated_Source\PSoC5/I2C_1_INT.c ****             case I2C_1_SM_MSTR_WR_DATA:
 205:Generated_Source\PSoC5/I2C_1_INT.c **** 
 206:Generated_Source\PSoC5/I2C_1_INT.c ****                 if(I2C_1_CHECK_DATA_ACK(tmpCsr))
 301              		.loc 1 206 0
 302 01ac 14F0020F 		tst	r4, #2
 303 01b0 36D1     		bne	.L21
 207:Generated_Source\PSoC5/I2C_1_INT.c ****                 {
 208:Generated_Source\PSoC5/I2C_1_INT.c ****                     /* Check if end of buffer */
 209:Generated_Source\PSoC5/I2C_1_INT.c ****                     if(I2C_1_mstrWrBufIndex  < I2C_1_mstrWrBufSize)
 304              		.loc 1 209 0
 305 01b2 414B     		ldr	r3, .L46+32
 306 01b4 1A78     		ldrb	r2, [r3]	@ zero_extendqisi2
 307 01b6 D2B2     		uxtb	r2, r2
 308 01b8 3C4B     		ldr	r3, .L46+20
 309 01ba 1B78     		ldrb	r3, [r3]	@ zero_extendqisi2
 310 01bc DBB2     		uxtb	r3, r3
 311 01be 9A42     		cmp	r2, r3
 312 01c0 10D2     		bcs	.L22
 210:Generated_Source\PSoC5/I2C_1_INT.c ****                     {
 211:Generated_Source\PSoC5/I2C_1_INT.c ****                         I2C_1_DATA_REG =
 212:Generated_Source\PSoC5/I2C_1_INT.c ****                                                  I2C_1_mstrWrBufPtr[I2C_1_mstrWrBufIndex];
 313              		.loc 1 212 0
 314 01c2 3D4A     		ldr	r2, .L46+32
 315 01c4 1378     		ldrb	r3, [r2]	@ zero_extendqisi2
 316 01c6 DBB2     		uxtb	r3, r3
 317 01c8 3949     		ldr	r1, .L46+24
 318 01ca 0968     		ldr	r1, [r1]
 319 01cc CB5C     		ldrb	r3, [r1, r3]	@ zero_extendqisi2
 320 01ce DBB2     		uxtb	r3, r3
 211:Generated_Source\PSoC5/I2C_1_INT.c ****                                                  I2C_1_mstrWrBufPtr[I2C_1_mstrWrBufIndex];
 321              		.loc 1 211 0
 322 01d0 3849     		ldr	r1, .L46+28
 323 01d2 0B70     		strb	r3, [r1]
 213:Generated_Source\PSoC5/I2C_1_INT.c ****                         I2C_1_TRANSMIT_DATA;
 324              		.loc 1 213 0
 325 01d4 0421     		movs	r1, #4
 326 01d6 304B     		ldr	r3, .L46
 327 01d8 1970     		strb	r1, [r3]
 214:Generated_Source\PSoC5/I2C_1_INT.c ****                         I2C_1_mstrWrBufIndex++;
 328              		.loc 1 214 0
 329 01da 1378     		ldrb	r3, [r2]	@ zero_extendqisi2
 330 01dc 0133     		adds	r3, r3, #1
 331 01de DBB2     		uxtb	r3, r3
 332 01e0 1370     		strb	r3, [r2]
 333 01e2 93E0     		b	.L8
 334              	.L22:
 215:Generated_Source\PSoC5/I2C_1_INT.c ****                     }
 216:Generated_Source\PSoC5/I2C_1_INT.c ****                     /* End of buffer: complete writing */
 217:Generated_Source\PSoC5/I2C_1_INT.c ****                     else if(I2C_1_CHECK_NO_STOP(I2C_1_mstrControl))
 335              		.loc 1 217 0
 336 01e4 354B     		ldr	r3, .L46+36
 337 01e6 1B78     		ldrb	r3, [r3]	@ zero_extendqisi2
 338 01e8 13F0020F 		tst	r3, #2
 339 01ec 0CD0     		beq	.L23
ARM GAS  C:\Users\Admin\AppData\Local\Temp\ccoJ6ZOx.s 			page 11


 218:Generated_Source\PSoC5/I2C_1_INT.c ****                     {
 219:Generated_Source\PSoC5/I2C_1_INT.c ****                         /* Set write complete and master halted */
 220:Generated_Source\PSoC5/I2C_1_INT.c ****                         I2C_1_mstrStatus |= (I2C_1_MSTAT_XFER_HALT |
 340              		.loc 1 220 0
 341 01ee 2D4A     		ldr	r2, .L46+12
 342 01f0 1378     		ldrb	r3, [r2]	@ zero_extendqisi2
 343 01f2 43F00A03 		orr	r3, r3, #10
 344 01f6 1370     		strb	r3, [r2]
 221:Generated_Source\PSoC5/I2C_1_INT.c ****                                                         I2C_1_MSTAT_WR_CMPLT);
 222:Generated_Source\PSoC5/I2C_1_INT.c **** 
 223:Generated_Source\PSoC5/I2C_1_INT.c ****                         I2C_1_state = I2C_1_SM_MSTR_HALT;    /* Expect restart */
 345              		.loc 1 223 0
 346 01f8 6022     		movs	r2, #96
 347 01fa 294B     		ldr	r3, .L46+8
 348 01fc 1A70     		strb	r2, [r3]
 224:Generated_Source\PSoC5/I2C_1_INT.c ****                         I2C_1_DisableInt();
 349              		.loc 1 224 0
 350 01fe 4FF40042 		mov	r2, #32768
 351 0202 2F4B     		ldr	r3, .L46+40
 352 0204 1A60     		str	r2, [r3]
 353 0206 81E0     		b	.L8
 354              	.L23:
 225:Generated_Source\PSoC5/I2C_1_INT.c ****                     }
 226:Generated_Source\PSoC5/I2C_1_INT.c ****                     else  /* Do normal Stop */
 227:Generated_Source\PSoC5/I2C_1_INT.c ****                     {
 228:Generated_Source\PSoC5/I2C_1_INT.c ****                         I2C_1_ENABLE_INT_ON_STOP;    /* Enable interrupt on Stop, to catch it */
 355              		.loc 1 228 0
 356 0208 274A     		ldr	r2, .L46+16
 357 020a 1378     		ldrb	r3, [r2]	@ zero_extendqisi2
 358 020c 43F01003 		orr	r3, r3, #16
 359 0210 1370     		strb	r3, [r2]
 229:Generated_Source\PSoC5/I2C_1_INT.c ****                         I2C_1_GENERATE_STOP;
 360              		.loc 1 229 0
 361 0212 1022     		movs	r2, #16
 362 0214 214B     		ldr	r3, .L46+4
 363 0216 1A70     		strb	r2, [r3]
 364 0218 0422     		movs	r2, #4
 365 021a 023B     		subs	r3, r3, #2
 366 021c 1A70     		strb	r2, [r3]
 367 021e 75E0     		b	.L8
 368              	.L21:
 230:Generated_Source\PSoC5/I2C_1_INT.c ****                     }
 231:Generated_Source\PSoC5/I2C_1_INT.c ****                 }
 232:Generated_Source\PSoC5/I2C_1_INT.c ****                 /* Last byte NAKed: end writing */
 233:Generated_Source\PSoC5/I2C_1_INT.c ****                 else if(I2C_1_CHECK_NO_STOP(I2C_1_mstrControl))
 369              		.loc 1 233 0
 370 0220 264B     		ldr	r3, .L46+36
 371 0222 1B78     		ldrb	r3, [r3]	@ zero_extendqisi2
 372 0224 13F0020F 		tst	r3, #2
 373 0228 0CD0     		beq	.L24
 234:Generated_Source\PSoC5/I2C_1_INT.c ****                 {
 235:Generated_Source\PSoC5/I2C_1_INT.c ****                     /* Set write complete, short transfer and master halted */
 236:Generated_Source\PSoC5/I2C_1_INT.c ****                     I2C_1_mstrStatus |= (I2C_1_MSTAT_ERR_XFER       |
 374              		.loc 1 236 0
 375 022a 1E4A     		ldr	r2, .L46+12
 376 022c 1378     		ldrb	r3, [r2]	@ zero_extendqisi2
 377 022e 43F09A03 		orr	r3, r3, #154
ARM GAS  C:\Users\Admin\AppData\Local\Temp\ccoJ6ZOx.s 			page 12


 378 0232 1370     		strb	r3, [r2]
 237:Generated_Source\PSoC5/I2C_1_INT.c ****                                                     I2C_1_MSTAT_ERR_SHORT_XFER |
 238:Generated_Source\PSoC5/I2C_1_INT.c ****                                                     I2C_1_MSTAT_XFER_HALT      |
 239:Generated_Source\PSoC5/I2C_1_INT.c ****                                                     I2C_1_MSTAT_WR_CMPLT);
 240:Generated_Source\PSoC5/I2C_1_INT.c **** 
 241:Generated_Source\PSoC5/I2C_1_INT.c ****                     I2C_1_state = I2C_1_SM_MSTR_HALT;    /* Expect ReStart */
 379              		.loc 1 241 0
 380 0234 6022     		movs	r2, #96
 381 0236 1A4B     		ldr	r3, .L46+8
 382 0238 1A70     		strb	r2, [r3]
 242:Generated_Source\PSoC5/I2C_1_INT.c ****                     I2C_1_DisableInt();
 383              		.loc 1 242 0
 384 023a 4FF40042 		mov	r2, #32768
 385 023e 204B     		ldr	r3, .L46+40
 386 0240 1A60     		str	r2, [r3]
 387 0242 63E0     		b	.L8
 388              	.L24:
 243:Generated_Source\PSoC5/I2C_1_INT.c ****                 }
 244:Generated_Source\PSoC5/I2C_1_INT.c ****                 else  /* Do normal Stop */
 245:Generated_Source\PSoC5/I2C_1_INT.c ****                 {
 246:Generated_Source\PSoC5/I2C_1_INT.c ****                     I2C_1_ENABLE_INT_ON_STOP;    /* Enable interrupt on Stop, to catch it */
 389              		.loc 1 246 0
 390 0244 184A     		ldr	r2, .L46+16
 391 0246 1378     		ldrb	r3, [r2]	@ zero_extendqisi2
 392 0248 43F01003 		orr	r3, r3, #16
 393 024c 1370     		strb	r3, [r2]
 247:Generated_Source\PSoC5/I2C_1_INT.c ****                     I2C_1_GENERATE_STOP;
 394              		.loc 1 247 0
 395 024e 1022     		movs	r2, #16
 396 0250 124B     		ldr	r3, .L46+4
 397 0252 1A70     		strb	r2, [r3]
 398 0254 0422     		movs	r2, #4
 399 0256 023B     		subs	r3, r3, #2
 400 0258 1A70     		strb	r2, [r3]
 248:Generated_Source\PSoC5/I2C_1_INT.c **** 
 249:Generated_Source\PSoC5/I2C_1_INT.c ****                     /* Set short transfer and error flag */
 250:Generated_Source\PSoC5/I2C_1_INT.c ****                     I2C_1_mstrStatus |= (I2C_1_MSTAT_ERR_SHORT_XFER |
 401              		.loc 1 250 0
 402 025a 124A     		ldr	r2, .L46+12
 403 025c 1378     		ldrb	r3, [r2]	@ zero_extendqisi2
 404 025e 43F09003 		orr	r3, r3, #144
 405 0262 1370     		strb	r3, [r2]
 406 0264 52E0     		b	.L8
 407              	.L13:
 251:Generated_Source\PSoC5/I2C_1_INT.c ****                                                     I2C_1_MSTAT_ERR_XFER);
 252:Generated_Source\PSoC5/I2C_1_INT.c ****                 }
 253:Generated_Source\PSoC5/I2C_1_INT.c **** 
 254:Generated_Source\PSoC5/I2C_1_INT.c ****                 break;
 255:Generated_Source\PSoC5/I2C_1_INT.c **** 
 256:Generated_Source\PSoC5/I2C_1_INT.c ****             case I2C_1_SM_MSTR_RD_DATA:
 257:Generated_Source\PSoC5/I2C_1_INT.c **** 
 258:Generated_Source\PSoC5/I2C_1_INT.c ****                 I2C_1_mstrRdBufPtr[I2C_1_mstrRdBufIndex] = I2C_1_DATA_REG;
 408              		.loc 1 258 0
 409 0266 174A     		ldr	r2, .L46+44
 410 0268 1378     		ldrb	r3, [r2]	@ zero_extendqisi2
 411 026a DBB2     		uxtb	r3, r3
 412 026c 1649     		ldr	r1, .L46+48
ARM GAS  C:\Users\Admin\AppData\Local\Temp\ccoJ6ZOx.s 			page 13


 413 026e 0868     		ldr	r0, [r1]
 414 0270 1049     		ldr	r1, .L46+28
 415 0272 0978     		ldrb	r1, [r1]	@ zero_extendqisi2
 416 0274 C9B2     		uxtb	r1, r1
 417 0276 C154     		strb	r1, [r0, r3]
 259:Generated_Source\PSoC5/I2C_1_INT.c ****                 I2C_1_mstrRdBufIndex++;
 418              		.loc 1 259 0
 419 0278 1378     		ldrb	r3, [r2]	@ zero_extendqisi2
 420 027a 0133     		adds	r3, r3, #1
 421 027c DBB2     		uxtb	r3, r3
 422 027e 1370     		strb	r3, [r2]
 260:Generated_Source\PSoC5/I2C_1_INT.c **** 
 261:Generated_Source\PSoC5/I2C_1_INT.c ****                 /* Check if end of buffer */
 262:Generated_Source\PSoC5/I2C_1_INT.c ****                 if(I2C_1_mstrRdBufIndex < I2C_1_mstrRdBufSize)
 423              		.loc 1 262 0
 424 0280 1278     		ldrb	r2, [r2]	@ zero_extendqisi2
 425 0282 D2B2     		uxtb	r2, r2
 426 0284 114B     		ldr	r3, .L46+52
 427 0286 1B78     		ldrb	r3, [r3]	@ zero_extendqisi2
 428 0288 DBB2     		uxtb	r3, r3
 429 028a 9A42     		cmp	r2, r3
 430 028c 20D2     		bcs	.L25
 263:Generated_Source\PSoC5/I2C_1_INT.c ****                 {
 264:Generated_Source\PSoC5/I2C_1_INT.c ****                     I2C_1_ACK_AND_RECEIVE;       /* ACK and receive byte */
 431              		.loc 1 264 0
 432 028e 1022     		movs	r2, #16
 433 0290 014B     		ldr	r3, .L46
 434 0292 1A70     		strb	r2, [r3]
 435 0294 3AE0     		b	.L8
 436              	.L47:
 437 0296 00BF     		.align	2
 438              	.L46:
 439 0298 D7490040 		.word	1073760727
 440 029c D9490040 		.word	1073760729
 441 02a0 00000000 		.word	I2C_1_state
 442 02a4 00000000 		.word	I2C_1_mstrStatus
 443 02a8 D6490040 		.word	1073760726
 444 02ac 00000000 		.word	I2C_1_mstrWrBufSize
 445 02b0 00000000 		.word	I2C_1_mstrWrBufPtr
 446 02b4 D8490040 		.word	1073760728
 447 02b8 00000000 		.word	I2C_1_mstrWrBufIndex
 448 02bc 00000000 		.word	I2C_1_mstrControl
 449 02c0 80E100E0 		.word	-536813184
 450 02c4 00000000 		.word	I2C_1_mstrRdBufIndex
 451 02c8 00000000 		.word	I2C_1_mstrRdBufPtr
 452 02cc 00000000 		.word	I2C_1_mstrRdBufSize
 453              	.L25:
 265:Generated_Source\PSoC5/I2C_1_INT.c ****                 }
 266:Generated_Source\PSoC5/I2C_1_INT.c ****                 /* End of buffer: complete reading */
 267:Generated_Source\PSoC5/I2C_1_INT.c ****                 else if(I2C_1_CHECK_NO_STOP(I2C_1_mstrControl))
 454              		.loc 1 267 0
 455 02d0 894B     		ldr	r3, .L48
 456 02d2 1B78     		ldrb	r3, [r3]	@ zero_extendqisi2
 457 02d4 13F0020F 		tst	r3, #2
 458 02d8 0CD0     		beq	.L26
 268:Generated_Source\PSoC5/I2C_1_INT.c ****                 {
 269:Generated_Source\PSoC5/I2C_1_INT.c ****                     /* Set read complete and master halted */
ARM GAS  C:\Users\Admin\AppData\Local\Temp\ccoJ6ZOx.s 			page 14


 270:Generated_Source\PSoC5/I2C_1_INT.c ****                     I2C_1_mstrStatus |= (I2C_1_MSTAT_XFER_HALT |
 459              		.loc 1 270 0
 460 02da 884A     		ldr	r2, .L48+4
 461 02dc 1378     		ldrb	r3, [r2]	@ zero_extendqisi2
 462 02de 43F00903 		orr	r3, r3, #9
 463 02e2 1370     		strb	r3, [r2]
 271:Generated_Source\PSoC5/I2C_1_INT.c ****                                                     I2C_1_MSTAT_RD_CMPLT);
 272:Generated_Source\PSoC5/I2C_1_INT.c **** 
 273:Generated_Source\PSoC5/I2C_1_INT.c ****                     I2C_1_state = I2C_1_SM_MSTR_HALT;    /* Expect ReStart */
 464              		.loc 1 273 0
 465 02e4 6022     		movs	r2, #96
 466 02e6 864B     		ldr	r3, .L48+8
 467 02e8 1A70     		strb	r2, [r3]
 274:Generated_Source\PSoC5/I2C_1_INT.c ****                     I2C_1_DisableInt();
 468              		.loc 1 274 0
 469 02ea 4FF40042 		mov	r2, #32768
 470 02ee 854B     		ldr	r3, .L48+12
 471 02f0 1A60     		str	r2, [r3]
 472 02f2 0BE0     		b	.L8
 473              	.L26:
 275:Generated_Source\PSoC5/I2C_1_INT.c ****                 }
 276:Generated_Source\PSoC5/I2C_1_INT.c ****                 else
 277:Generated_Source\PSoC5/I2C_1_INT.c ****                 {
 278:Generated_Source\PSoC5/I2C_1_INT.c ****                     I2C_1_ENABLE_INT_ON_STOP;
 474              		.loc 1 278 0
 475 02f4 844A     		ldr	r2, .L48+16
 476 02f6 1378     		ldrb	r3, [r2]	@ zero_extendqisi2
 477 02f8 43F01003 		orr	r3, r3, #16
 478 02fc 1370     		strb	r3, [r2]
 279:Generated_Source\PSoC5/I2C_1_INT.c ****                     I2C_1_NAK_AND_RECEIVE;       /* NACK and TRY to generate Stop */
 479              		.loc 1 279 0
 480 02fe 0022     		movs	r2, #0
 481 0300 824B     		ldr	r3, .L48+20
 482 0302 1A70     		strb	r2, [r3]
 483 0304 02E0     		b	.L8
 484              	.L9:
 280:Generated_Source\PSoC5/I2C_1_INT.c ****                 }
 281:Generated_Source\PSoC5/I2C_1_INT.c ****                 break;
 282:Generated_Source\PSoC5/I2C_1_INT.c **** 
 283:Generated_Source\PSoC5/I2C_1_INT.c ****             default: /* This is an invalid state and should not occur */
 284:Generated_Source\PSoC5/I2C_1_INT.c **** 
 285:Generated_Source\PSoC5/I2C_1_INT.c ****             #if(I2C_1_TIMEOUT_ENABLED)
 286:Generated_Source\PSoC5/I2C_1_INT.c ****                 /* Exit interrupt to take chance for timeout timer to handles this case */
 287:Generated_Source\PSoC5/I2C_1_INT.c ****                 I2C_1_DisableInt();
 288:Generated_Source\PSoC5/I2C_1_INT.c ****                 I2C_1_ClearPendingInt();
 289:Generated_Source\PSoC5/I2C_1_INT.c ****             #else
 290:Generated_Source\PSoC5/I2C_1_INT.c ****                 /* Block execution flow: unexpected condition */
 291:Generated_Source\PSoC5/I2C_1_INT.c ****                 CYASSERT(0u != 0u);
 485              		.loc 1 291 0 discriminator 1
 486 0306 0020     		movs	r0, #0
 487 0308 FFF7FEFF 		bl	CyHalt
 488              	.LVL4:
 489              	.L8:
 292:Generated_Source\PSoC5/I2C_1_INT.c ****             #endif /* (I2C_1_TIMEOUT_ENABLED) */
 293:Generated_Source\PSoC5/I2C_1_INT.c **** 
 294:Generated_Source\PSoC5/I2C_1_INT.c ****                 break;
 295:Generated_Source\PSoC5/I2C_1_INT.c ****             }
ARM GAS  C:\Users\Admin\AppData\Local\Temp\ccoJ6ZOx.s 			page 15


 296:Generated_Source\PSoC5/I2C_1_INT.c ****         }
 297:Generated_Source\PSoC5/I2C_1_INT.c **** 
 298:Generated_Source\PSoC5/I2C_1_INT.c ****         /* Catches Stop: end of transaction */
 299:Generated_Source\PSoC5/I2C_1_INT.c ****         if(I2C_1_CHECK_STOP_STS(tmpCsr))
 490              		.loc 1 299 0
 491 030c 14F0200F 		tst	r4, #32
 492 0310 00F0F080 		beq	.L1
 300:Generated_Source\PSoC5/I2C_1_INT.c ****         {
 301:Generated_Source\PSoC5/I2C_1_INT.c ****             I2C_1_mstrStatus |= I2C_1_GET_MSTAT_CMPLT;
 493              		.loc 1 301 0
 494 0314 7A4B     		ldr	r3, .L48+8
 495 0316 1B78     		ldrb	r3, [r3]	@ zero_extendqisi2
 496 0318 13F0080F 		tst	r3, #8
 497 031c 01D0     		beq	.L44
 498 031e 0123     		movs	r3, #1
 499 0320 00E0     		b	.L28
 500              	.L44:
 501 0322 0223     		movs	r3, #2
 502              	.L28:
 503              		.loc 1 301 0 is_stmt 0 discriminator 4
 504 0324 754A     		ldr	r2, .L48+4
 505 0326 1178     		ldrb	r1, [r2]	@ zero_extendqisi2
 506 0328 0B43     		orrs	r3, r3, r1
 507 032a 1370     		strb	r3, [r2]
 302:Generated_Source\PSoC5/I2C_1_INT.c **** 
 303:Generated_Source\PSoC5/I2C_1_INT.c ****             I2C_1_DISABLE_INT_ON_STOP;
 508              		.loc 1 303 0 is_stmt 1 discriminator 4
 509 032c 764A     		ldr	r2, .L48+16
 510 032e 1378     		ldrb	r3, [r2]	@ zero_extendqisi2
 511 0330 03F0EF03 		and	r3, r3, #239
 512 0334 1370     		strb	r3, [r2]
 304:Generated_Source\PSoC5/I2C_1_INT.c ****             I2C_1_state = I2C_1_SM_IDLE;
 513              		.loc 1 304 0 discriminator 4
 514 0336 1022     		movs	r2, #16
 515 0338 714B     		ldr	r3, .L48+8
 516 033a 1A70     		strb	r2, [r3]
 517 033c 38BD     		pop	{r3, r4, r5, pc}
 518              	.LVL5:
 519              	.L7:
 305:Generated_Source\PSoC5/I2C_1_INT.c ****         }
 306:Generated_Source\PSoC5/I2C_1_INT.c ****     #endif /* (I2C_1_MODE_MASTER_ENABLED) */
 307:Generated_Source\PSoC5/I2C_1_INT.c ****     }
 308:Generated_Source\PSoC5/I2C_1_INT.c ****     else if(I2C_1_CHECK_SM_SLAVE)
 520              		.loc 1 308 0
 521 033e 704B     		ldr	r3, .L48+8
 522 0340 1B78     		ldrb	r3, [r3]	@ zero_extendqisi2
 523 0342 13F0100F 		tst	r3, #16
 524 0346 00F0D280 		beq	.L29
 309:Generated_Source\PSoC5/I2C_1_INT.c ****     {
 310:Generated_Source\PSoC5/I2C_1_INT.c ****     #if(I2C_1_MODE_SLAVE_ENABLED)
 311:Generated_Source\PSoC5/I2C_1_INT.c **** 
 312:Generated_Source\PSoC5/I2C_1_INT.c ****         if((I2C_1_CHECK_STOP_STS(tmpCsr)) || /* Stop || Restart */
 525              		.loc 1 312 0
 526 034a 14F0200F 		tst	r4, #32
 527 034e 03D1     		bne	.L30
 528              		.loc 1 312 0 is_stmt 0 discriminator 1
 529 0350 04F00903 		and	r3, r4, #9
ARM GAS  C:\Users\Admin\AppData\Local\Temp\ccoJ6ZOx.s 			page 16


 530 0354 092B     		cmp	r3, #9
 531 0356 15D1     		bne	.L31
 532              	.L30:
 313:Generated_Source\PSoC5/I2C_1_INT.c ****            (I2C_1_CHECK_BYTE_COMPLETE(tmpCsr) && I2C_1_CHECK_ADDRESS_STS(tmpCsr)))
 314:Generated_Source\PSoC5/I2C_1_INT.c ****         {
 315:Generated_Source\PSoC5/I2C_1_INT.c ****             /* Catch end of master write transaction: use interrupt on Stop */
 316:Generated_Source\PSoC5/I2C_1_INT.c ****             /* The Stop bit history on address phase does not have correct state */
 317:Generated_Source\PSoC5/I2C_1_INT.c ****             if(I2C_1_SM_SL_WR_DATA == I2C_1_state)
 533              		.loc 1 317 0 is_stmt 1
 534 0358 694B     		ldr	r3, .L48+8
 535 035a 1B78     		ldrb	r3, [r3]	@ zero_extendqisi2
 536 035c DBB2     		uxtb	r3, r3
 537 035e 112B     		cmp	r3, #17
 538 0360 10D1     		bne	.L31
 318:Generated_Source\PSoC5/I2C_1_INT.c ****             {
 319:Generated_Source\PSoC5/I2C_1_INT.c ****                 I2C_1_DISABLE_INT_ON_STOP;
 539              		.loc 1 319 0
 540 0362 694A     		ldr	r2, .L48+16
 541 0364 1378     		ldrb	r3, [r2]	@ zero_extendqisi2
 542 0366 03F0EF03 		and	r3, r3, #239
 543 036a 1370     		strb	r3, [r2]
 320:Generated_Source\PSoC5/I2C_1_INT.c **** 
 321:Generated_Source\PSoC5/I2C_1_INT.c ****                 I2C_1_slStatus &= ((uint8) ~I2C_1_SSTAT_WR_BUSY);
 544              		.loc 1 321 0
 545 036c 684B     		ldr	r3, .L48+24
 546 036e 1A78     		ldrb	r2, [r3]	@ zero_extendqisi2
 547 0370 02F0DF02 		and	r2, r2, #223
 548 0374 1A70     		strb	r2, [r3]
 322:Generated_Source\PSoC5/I2C_1_INT.c ****                 I2C_1_slStatus |= ((uint8)  I2C_1_SSTAT_WR_CMPLT);
 549              		.loc 1 322 0
 550 0376 1A78     		ldrb	r2, [r3]	@ zero_extendqisi2
 551 0378 42F01002 		orr	r2, r2, #16
 552 037c 1A70     		strb	r2, [r3]
 323:Generated_Source\PSoC5/I2C_1_INT.c **** 
 324:Generated_Source\PSoC5/I2C_1_INT.c ****                 I2C_1_state = I2C_1_SM_IDLE;
 553              		.loc 1 324 0
 554 037e 1022     		movs	r2, #16
 555 0380 5F4B     		ldr	r3, .L48+8
 556 0382 1A70     		strb	r2, [r3]
 557              	.L31:
 325:Generated_Source\PSoC5/I2C_1_INT.c ****             }
 326:Generated_Source\PSoC5/I2C_1_INT.c ****         }
 327:Generated_Source\PSoC5/I2C_1_INT.c **** 
 328:Generated_Source\PSoC5/I2C_1_INT.c ****         if(I2C_1_CHECK_BYTE_COMPLETE(tmpCsr))
 558              		.loc 1 328 0
 559 0384 14F0010F 		tst	r4, #1
 560 0388 00F0B480 		beq	.L1
 329:Generated_Source\PSoC5/I2C_1_INT.c ****         {
 330:Generated_Source\PSoC5/I2C_1_INT.c ****             /* The address only issued after Start or ReStart: so check the address
 331:Generated_Source\PSoC5/I2C_1_INT.c ****                to catch these events:
 332:Generated_Source\PSoC5/I2C_1_INT.c ****                 FF : sets an address phase with a byte_complete interrupt trigger.
 333:Generated_Source\PSoC5/I2C_1_INT.c ****                 UDB: sets an address phase immediately after Start or ReStart. */
 334:Generated_Source\PSoC5/I2C_1_INT.c ****             if(I2C_1_CHECK_ADDRESS_STS(tmpCsr))
 561              		.loc 1 334 0
 562 038c 14F0080F 		tst	r4, #8
 563 0390 42D0     		beq	.L32
 335:Generated_Source\PSoC5/I2C_1_INT.c ****             {
ARM GAS  C:\Users\Admin\AppData\Local\Temp\ccoJ6ZOx.s 			page 17


 336:Generated_Source\PSoC5/I2C_1_INT.c ****             /* Check for software address detection */
 337:Generated_Source\PSoC5/I2C_1_INT.c ****             #if(I2C_1_SW_ADRR_DECODE)
 338:Generated_Source\PSoC5/I2C_1_INT.c ****                 tmp8 = I2C_1_GET_SLAVE_ADDR(I2C_1_DATA_REG);
 339:Generated_Source\PSoC5/I2C_1_INT.c **** 
 340:Generated_Source\PSoC5/I2C_1_INT.c ****                 if(tmp8 == I2C_1_slAddress)   /* Check for address match */
 341:Generated_Source\PSoC5/I2C_1_INT.c ****                 {
 342:Generated_Source\PSoC5/I2C_1_INT.c ****                     if(0u != (I2C_1_DATA_REG & I2C_1_READ_FLAG))
 343:Generated_Source\PSoC5/I2C_1_INT.c ****                     {
 344:Generated_Source\PSoC5/I2C_1_INT.c ****                         /* Place code to prepare read buffer here                  */
 345:Generated_Source\PSoC5/I2C_1_INT.c ****                         /* `#START I2C_1_SW_PREPARE_READ_BUF_interrupt` */
 346:Generated_Source\PSoC5/I2C_1_INT.c **** 
 347:Generated_Source\PSoC5/I2C_1_INT.c ****                         /* `#END` */
 348:Generated_Source\PSoC5/I2C_1_INT.c **** 
 349:Generated_Source\PSoC5/I2C_1_INT.c ****                     #ifdef I2C_1_SW_PREPARE_READ_BUF_CALLBACK
 350:Generated_Source\PSoC5/I2C_1_INT.c ****                         I2C_1_SwPrepareReadBuf_Callback();
 351:Generated_Source\PSoC5/I2C_1_INT.c ****                     #endif /* I2C_1_SW_PREPARE_READ_BUF_CALLBACK */
 352:Generated_Source\PSoC5/I2C_1_INT.c ****                         
 353:Generated_Source\PSoC5/I2C_1_INT.c ****                         /* Prepare next operation to read, get data and place in data register */
 354:Generated_Source\PSoC5/I2C_1_INT.c ****                         if(I2C_1_slRdBufIndex < I2C_1_slRdBufSize)
 355:Generated_Source\PSoC5/I2C_1_INT.c ****                         {
 356:Generated_Source\PSoC5/I2C_1_INT.c ****                             /* Load first data byte from array */
 357:Generated_Source\PSoC5/I2C_1_INT.c ****                             I2C_1_DATA_REG = I2C_1_slRdBufPtr[I2C_1_slRdBufIndex];
 358:Generated_Source\PSoC5/I2C_1_INT.c ****                             I2C_1_ACK_AND_TRANSMIT;
 359:Generated_Source\PSoC5/I2C_1_INT.c ****                             I2C_1_slRdBufIndex++;
 360:Generated_Source\PSoC5/I2C_1_INT.c **** 
 361:Generated_Source\PSoC5/I2C_1_INT.c ****                             I2C_1_slStatus |= I2C_1_SSTAT_RD_BUSY;
 362:Generated_Source\PSoC5/I2C_1_INT.c ****                         }
 363:Generated_Source\PSoC5/I2C_1_INT.c ****                         else    /* Overflow: provide 0xFF on bus */
 364:Generated_Source\PSoC5/I2C_1_INT.c ****                         {
 365:Generated_Source\PSoC5/I2C_1_INT.c ****                             I2C_1_DATA_REG = I2C_1_OVERFLOW_RETURN;
 366:Generated_Source\PSoC5/I2C_1_INT.c ****                             I2C_1_ACK_AND_TRANSMIT;
 367:Generated_Source\PSoC5/I2C_1_INT.c **** 
 368:Generated_Source\PSoC5/I2C_1_INT.c ****                             I2C_1_slStatus  |= (I2C_1_SSTAT_RD_BUSY |
 369:Generated_Source\PSoC5/I2C_1_INT.c ****                                                            I2C_1_SSTAT_RD_ERR_OVFL);
 370:Generated_Source\PSoC5/I2C_1_INT.c ****                         }
 371:Generated_Source\PSoC5/I2C_1_INT.c **** 
 372:Generated_Source\PSoC5/I2C_1_INT.c ****                         I2C_1_state = I2C_1_SM_SL_RD_DATA;
 373:Generated_Source\PSoC5/I2C_1_INT.c ****                     }
 374:Generated_Source\PSoC5/I2C_1_INT.c ****                     else  /* Write transaction: receive 1st byte */
 375:Generated_Source\PSoC5/I2C_1_INT.c ****                     {
 376:Generated_Source\PSoC5/I2C_1_INT.c ****                         I2C_1_ACK_AND_RECEIVE;
 377:Generated_Source\PSoC5/I2C_1_INT.c ****                         I2C_1_state = I2C_1_SM_SL_WR_DATA;
 378:Generated_Source\PSoC5/I2C_1_INT.c **** 
 379:Generated_Source\PSoC5/I2C_1_INT.c ****                         I2C_1_slStatus |= I2C_1_SSTAT_WR_BUSY;
 380:Generated_Source\PSoC5/I2C_1_INT.c ****                         I2C_1_ENABLE_INT_ON_STOP;
 381:Generated_Source\PSoC5/I2C_1_INT.c ****                     }
 382:Generated_Source\PSoC5/I2C_1_INT.c ****                 }
 383:Generated_Source\PSoC5/I2C_1_INT.c ****                 else
 384:Generated_Source\PSoC5/I2C_1_INT.c ****                 {
 385:Generated_Source\PSoC5/I2C_1_INT.c ****                     /*     Place code to compare for additional address here    */
 386:Generated_Source\PSoC5/I2C_1_INT.c ****                     /* `#START I2C_1_SW_ADDR_COMPARE_interruptStart` */
 387:Generated_Source\PSoC5/I2C_1_INT.c **** 
 388:Generated_Source\PSoC5/I2C_1_INT.c ****                     /* `#END` */
 389:Generated_Source\PSoC5/I2C_1_INT.c **** 
 390:Generated_Source\PSoC5/I2C_1_INT.c ****                 #ifdef I2C_1_SW_ADDR_COMPARE_ENTRY_CALLBACK
 391:Generated_Source\PSoC5/I2C_1_INT.c ****                     I2C_1_SwAddrCompare_EntryCallback();
 392:Generated_Source\PSoC5/I2C_1_INT.c ****                 #endif /* I2C_1_SW_ADDR_COMPARE_ENTRY_CALLBACK */
ARM GAS  C:\Users\Admin\AppData\Local\Temp\ccoJ6ZOx.s 			page 18


 393:Generated_Source\PSoC5/I2C_1_INT.c ****                     
 394:Generated_Source\PSoC5/I2C_1_INT.c ****                     I2C_1_NAK_AND_RECEIVE;   /* NACK address */
 395:Generated_Source\PSoC5/I2C_1_INT.c **** 
 396:Generated_Source\PSoC5/I2C_1_INT.c ****                     /* Place code to end of condition for NACK generation here */
 397:Generated_Source\PSoC5/I2C_1_INT.c ****                     /* `#START I2C_1_SW_ADDR_COMPARE_interruptEnd`  */
 398:Generated_Source\PSoC5/I2C_1_INT.c **** 
 399:Generated_Source\PSoC5/I2C_1_INT.c ****                     /* `#END` */
 400:Generated_Source\PSoC5/I2C_1_INT.c **** 
 401:Generated_Source\PSoC5/I2C_1_INT.c ****                 #ifdef I2C_1_SW_ADDR_COMPARE_EXIT_CALLBACK
 402:Generated_Source\PSoC5/I2C_1_INT.c ****                     I2C_1_SwAddrCompare_ExitCallback();
 403:Generated_Source\PSoC5/I2C_1_INT.c ****                 #endif /* I2C_1_SW_ADDR_COMPARE_EXIT_CALLBACK */
 404:Generated_Source\PSoC5/I2C_1_INT.c ****                 }
 405:Generated_Source\PSoC5/I2C_1_INT.c **** 
 406:Generated_Source\PSoC5/I2C_1_INT.c ****             #else /* (I2C_1_HW_ADRR_DECODE) */
 407:Generated_Source\PSoC5/I2C_1_INT.c **** 
 408:Generated_Source\PSoC5/I2C_1_INT.c ****                 if(0u != (I2C_1_DATA_REG & I2C_1_READ_FLAG))
 564              		.loc 1 408 0
 565 0392 604B     		ldr	r3, .L48+28
 566 0394 1B78     		ldrb	r3, [r3]	@ zero_extendqisi2
 567 0396 13F0010F 		tst	r3, #1
 568 039a 2CD0     		beq	.L33
 409:Generated_Source\PSoC5/I2C_1_INT.c ****                 {
 410:Generated_Source\PSoC5/I2C_1_INT.c ****                     /* Place code to prepare read buffer here                  */
 411:Generated_Source\PSoC5/I2C_1_INT.c ****                     /* `#START I2C_1_HW_PREPARE_READ_BUF_interrupt` */
 412:Generated_Source\PSoC5/I2C_1_INT.c **** 
 413:Generated_Source\PSoC5/I2C_1_INT.c ****                     /* `#END` */
 414:Generated_Source\PSoC5/I2C_1_INT.c ****                     
 415:Generated_Source\PSoC5/I2C_1_INT.c ****                 #ifdef I2C_1_HW_PREPARE_READ_BUF_CALLBACK
 416:Generated_Source\PSoC5/I2C_1_INT.c ****                     I2C_1_HwPrepareReadBuf_Callback();
 417:Generated_Source\PSoC5/I2C_1_INT.c ****                 #endif /* I2C_1_HW_PREPARE_READ_BUF_CALLBACK */
 418:Generated_Source\PSoC5/I2C_1_INT.c **** 
 419:Generated_Source\PSoC5/I2C_1_INT.c ****                     /* Prepare next operation to read, get data and place in data register */
 420:Generated_Source\PSoC5/I2C_1_INT.c ****                     if(I2C_1_slRdBufIndex < I2C_1_slRdBufSize)
 569              		.loc 1 420 0
 570 039c 5E4B     		ldr	r3, .L48+32
 571 039e 1A78     		ldrb	r2, [r3]	@ zero_extendqisi2
 572 03a0 D2B2     		uxtb	r2, r2
 573 03a2 5E4B     		ldr	r3, .L48+36
 574 03a4 1B78     		ldrb	r3, [r3]	@ zero_extendqisi2
 575 03a6 DBB2     		uxtb	r3, r3
 576 03a8 9A42     		cmp	r2, r3
 577 03aa 15D2     		bcs	.L34
 421:Generated_Source\PSoC5/I2C_1_INT.c ****                     {
 422:Generated_Source\PSoC5/I2C_1_INT.c ****                         /* Load first data byte from array */
 423:Generated_Source\PSoC5/I2C_1_INT.c ****                         I2C_1_DATA_REG = I2C_1_slRdBufPtr[I2C_1_slRdBufIndex];
 578              		.loc 1 423 0
 579 03ac 5A4A     		ldr	r2, .L48+32
 580 03ae 1378     		ldrb	r3, [r2]	@ zero_extendqisi2
 581 03b0 DBB2     		uxtb	r3, r3
 582 03b2 5B49     		ldr	r1, .L48+40
 583 03b4 0968     		ldr	r1, [r1]
 584 03b6 CB5C     		ldrb	r3, [r1, r3]	@ zero_extendqisi2
 585 03b8 DBB2     		uxtb	r3, r3
 586 03ba 5649     		ldr	r1, .L48+28
 587 03bc 0B70     		strb	r3, [r1]
 424:Generated_Source\PSoC5/I2C_1_INT.c ****                         I2C_1_ACK_AND_TRANSMIT;
 588              		.loc 1 424 0
ARM GAS  C:\Users\Admin\AppData\Local\Temp\ccoJ6ZOx.s 			page 19


 589 03be 1421     		movs	r1, #20
 590 03c0 524B     		ldr	r3, .L48+20
 591 03c2 1970     		strb	r1, [r3]
 425:Generated_Source\PSoC5/I2C_1_INT.c ****                         I2C_1_slRdBufIndex++;
 592              		.loc 1 425 0
 593 03c4 1378     		ldrb	r3, [r2]	@ zero_extendqisi2
 594 03c6 0133     		adds	r3, r3, #1
 595 03c8 DBB2     		uxtb	r3, r3
 596 03ca 1370     		strb	r3, [r2]
 426:Generated_Source\PSoC5/I2C_1_INT.c **** 
 427:Generated_Source\PSoC5/I2C_1_INT.c ****                         I2C_1_slStatus |= I2C_1_SSTAT_RD_BUSY;
 597              		.loc 1 427 0
 598 03cc 504A     		ldr	r2, .L48+24
 599 03ce 1378     		ldrb	r3, [r2]	@ zero_extendqisi2
 600 03d0 43F00203 		orr	r3, r3, #2
 601 03d4 1370     		strb	r3, [r2]
 602 03d6 0AE0     		b	.L35
 603              	.L34:
 428:Generated_Source\PSoC5/I2C_1_INT.c ****                     }
 429:Generated_Source\PSoC5/I2C_1_INT.c ****                     else    /* Overflow: provide 0xFF on bus */
 430:Generated_Source\PSoC5/I2C_1_INT.c ****                     {
 431:Generated_Source\PSoC5/I2C_1_INT.c ****                         I2C_1_DATA_REG = I2C_1_OVERFLOW_RETURN;
 604              		.loc 1 431 0
 605 03d8 FF22     		movs	r2, #255
 606 03da 4E4B     		ldr	r3, .L48+28
 607 03dc 1A70     		strb	r2, [r3]
 432:Generated_Source\PSoC5/I2C_1_INT.c ****                         I2C_1_ACK_AND_TRANSMIT;
 608              		.loc 1 432 0
 609 03de 1422     		movs	r2, #20
 610 03e0 013B     		subs	r3, r3, #1
 611 03e2 1A70     		strb	r2, [r3]
 433:Generated_Source\PSoC5/I2C_1_INT.c **** 
 434:Generated_Source\PSoC5/I2C_1_INT.c ****                         I2C_1_slStatus  |= (I2C_1_SSTAT_RD_BUSY |
 612              		.loc 1 434 0
 613 03e4 4A4A     		ldr	r2, .L48+24
 614 03e6 1378     		ldrb	r3, [r2]	@ zero_extendqisi2
 615 03e8 43F00603 		orr	r3, r3, #6
 616 03ec 1370     		strb	r3, [r2]
 617              	.L35:
 435:Generated_Source\PSoC5/I2C_1_INT.c ****                                                        I2C_1_SSTAT_RD_ERR_OVFL);
 436:Generated_Source\PSoC5/I2C_1_INT.c ****                     }
 437:Generated_Source\PSoC5/I2C_1_INT.c **** 
 438:Generated_Source\PSoC5/I2C_1_INT.c ****                     I2C_1_state = I2C_1_SM_SL_RD_DATA;
 618              		.loc 1 438 0
 619 03ee 1222     		movs	r2, #18
 620 03f0 434B     		ldr	r3, .L48+8
 621 03f2 1A70     		strb	r2, [r3]
 622 03f4 38BD     		pop	{r3, r4, r5, pc}
 623              	.LVL6:
 624              	.L33:
 439:Generated_Source\PSoC5/I2C_1_INT.c ****                 }
 440:Generated_Source\PSoC5/I2C_1_INT.c ****                 else  /* Write transaction: receive 1st byte */
 441:Generated_Source\PSoC5/I2C_1_INT.c ****                 {
 442:Generated_Source\PSoC5/I2C_1_INT.c ****                     I2C_1_ACK_AND_RECEIVE;
 625              		.loc 1 442 0
 626 03f6 1022     		movs	r2, #16
 627 03f8 444B     		ldr	r3, .L48+20
ARM GAS  C:\Users\Admin\AppData\Local\Temp\ccoJ6ZOx.s 			page 20


 628 03fa 1A70     		strb	r2, [r3]
 443:Generated_Source\PSoC5/I2C_1_INT.c ****                     I2C_1_state = I2C_1_SM_SL_WR_DATA;
 629              		.loc 1 443 0
 630 03fc 1122     		movs	r2, #17
 631 03fe 404B     		ldr	r3, .L48+8
 632 0400 1A70     		strb	r2, [r3]
 444:Generated_Source\PSoC5/I2C_1_INT.c **** 
 445:Generated_Source\PSoC5/I2C_1_INT.c ****                     I2C_1_slStatus |= I2C_1_SSTAT_WR_BUSY;
 633              		.loc 1 445 0
 634 0402 434A     		ldr	r2, .L48+24
 635 0404 1378     		ldrb	r3, [r2]	@ zero_extendqisi2
 636 0406 43F02003 		orr	r3, r3, #32
 637 040a 1370     		strb	r3, [r2]
 446:Generated_Source\PSoC5/I2C_1_INT.c ****                     I2C_1_ENABLE_INT_ON_STOP;
 638              		.loc 1 446 0
 639 040c 3E4A     		ldr	r2, .L48+16
 640 040e 1378     		ldrb	r3, [r2]	@ zero_extendqisi2
 641 0410 43F01003 		orr	r3, r3, #16
 642 0414 1370     		strb	r3, [r2]
 643 0416 38BD     		pop	{r3, r4, r5, pc}
 644              	.LVL7:
 645              	.L32:
 447:Generated_Source\PSoC5/I2C_1_INT.c ****                 }
 448:Generated_Source\PSoC5/I2C_1_INT.c **** 
 449:Generated_Source\PSoC5/I2C_1_INT.c ****             #endif /* (I2C_1_SW_ADRR_DECODE) */
 450:Generated_Source\PSoC5/I2C_1_INT.c ****             }
 451:Generated_Source\PSoC5/I2C_1_INT.c ****             /* Data states */
 452:Generated_Source\PSoC5/I2C_1_INT.c ****             /* Data master writes into slave */
 453:Generated_Source\PSoC5/I2C_1_INT.c ****             else if(I2C_1_state == I2C_1_SM_SL_WR_DATA)
 646              		.loc 1 453 0
 647 0418 394B     		ldr	r3, .L48+8
 648 041a 1B78     		ldrb	r3, [r3]	@ zero_extendqisi2
 649 041c DBB2     		uxtb	r3, r3
 650 041e 112B     		cmp	r3, #17
 651 0420 21D1     		bne	.L36
 454:Generated_Source\PSoC5/I2C_1_INT.c ****             {
 455:Generated_Source\PSoC5/I2C_1_INT.c ****                 if(I2C_1_slWrBufIndex < I2C_1_slWrBufSize)
 652              		.loc 1 455 0
 653 0422 404B     		ldr	r3, .L48+44
 654 0424 1A78     		ldrb	r2, [r3]	@ zero_extendqisi2
 655 0426 D2B2     		uxtb	r2, r2
 656 0428 3F4B     		ldr	r3, .L48+48
 657 042a 1B78     		ldrb	r3, [r3]	@ zero_extendqisi2
 658 042c DBB2     		uxtb	r3, r3
 659 042e 9A42     		cmp	r2, r3
 660 0430 10D2     		bcs	.L37
 456:Generated_Source\PSoC5/I2C_1_INT.c ****                 {
 457:Generated_Source\PSoC5/I2C_1_INT.c ****                     tmp8 = I2C_1_DATA_REG;
 661              		.loc 1 457 0
 662 0432 384B     		ldr	r3, .L48+28
 663 0434 1978     		ldrb	r1, [r3]	@ zero_extendqisi2
 664 0436 C9B2     		uxtb	r1, r1
 665              	.LVL8:
 458:Generated_Source\PSoC5/I2C_1_INT.c ****                     I2C_1_ACK_AND_RECEIVE;
 666              		.loc 1 458 0
 667 0438 1022     		movs	r2, #16
 668 043a 013B     		subs	r3, r3, #1
ARM GAS  C:\Users\Admin\AppData\Local\Temp\ccoJ6ZOx.s 			page 21


 669 043c 1A70     		strb	r2, [r3]
 459:Generated_Source\PSoC5/I2C_1_INT.c ****                     I2C_1_slWrBufPtr[I2C_1_slWrBufIndex] = tmp8;
 670              		.loc 1 459 0
 671 043e 394A     		ldr	r2, .L48+44
 672 0440 1378     		ldrb	r3, [r2]	@ zero_extendqisi2
 673 0442 DBB2     		uxtb	r3, r3
 674 0444 3948     		ldr	r0, .L48+52
 675 0446 0068     		ldr	r0, [r0]
 676 0448 C154     		strb	r1, [r0, r3]
 460:Generated_Source\PSoC5/I2C_1_INT.c ****                     I2C_1_slWrBufIndex++;
 677              		.loc 1 460 0
 678 044a 1378     		ldrb	r3, [r2]	@ zero_extendqisi2
 679 044c 0133     		adds	r3, r3, #1
 680 044e DBB2     		uxtb	r3, r3
 681 0450 1370     		strb	r3, [r2]
 682 0452 38BD     		pop	{r3, r4, r5, pc}
 683              	.LVL9:
 684              	.L37:
 461:Generated_Source\PSoC5/I2C_1_INT.c ****                 }
 462:Generated_Source\PSoC5/I2C_1_INT.c ****                 else  /* of array: complete write, send NACK */
 463:Generated_Source\PSoC5/I2C_1_INT.c ****                 {
 464:Generated_Source\PSoC5/I2C_1_INT.c ****                     I2C_1_NAK_AND_RECEIVE;
 685              		.loc 1 464 0
 686 0454 0022     		movs	r2, #0
 687 0456 2D4B     		ldr	r3, .L48+20
 688 0458 1A70     		strb	r2, [r3]
 465:Generated_Source\PSoC5/I2C_1_INT.c **** 
 466:Generated_Source\PSoC5/I2C_1_INT.c ****                     I2C_1_slStatus |= I2C_1_SSTAT_WR_ERR_OVFL;
 689              		.loc 1 466 0
 690 045a 2D4A     		ldr	r2, .L48+24
 691 045c 1378     		ldrb	r3, [r2]	@ zero_extendqisi2
 692 045e 43F04003 		orr	r3, r3, #64
 693 0462 1370     		strb	r3, [r2]
 694 0464 38BD     		pop	{r3, r4, r5, pc}
 695              	.LVL10:
 696              	.L36:
 467:Generated_Source\PSoC5/I2C_1_INT.c ****                 }
 468:Generated_Source\PSoC5/I2C_1_INT.c ****             }
 469:Generated_Source\PSoC5/I2C_1_INT.c ****             /* Data master reads from slave */
 470:Generated_Source\PSoC5/I2C_1_INT.c ****             else if(I2C_1_state == I2C_1_SM_SL_RD_DATA)
 697              		.loc 1 470 0
 698 0466 264B     		ldr	r3, .L48+8
 699 0468 1B78     		ldrb	r3, [r3]	@ zero_extendqisi2
 700 046a DBB2     		uxtb	r3, r3
 701 046c 122B     		cmp	r3, #18
 702 046e 3AD1     		bne	.L38
 471:Generated_Source\PSoC5/I2C_1_INT.c ****             {
 472:Generated_Source\PSoC5/I2C_1_INT.c ****                 if(I2C_1_CHECK_DATA_ACK(tmpCsr))
 703              		.loc 1 472 0
 704 0470 14F0020F 		tst	r4, #2
 705 0474 24D1     		bne	.L39
 473:Generated_Source\PSoC5/I2C_1_INT.c ****                 {
 474:Generated_Source\PSoC5/I2C_1_INT.c ****                     if(I2C_1_slRdBufIndex < I2C_1_slRdBufSize)
 706              		.loc 1 474 0
 707 0476 284B     		ldr	r3, .L48+32
 708 0478 1A78     		ldrb	r2, [r3]	@ zero_extendqisi2
 709 047a D2B2     		uxtb	r2, r2
ARM GAS  C:\Users\Admin\AppData\Local\Temp\ccoJ6ZOx.s 			page 22


 710 047c 274B     		ldr	r3, .L48+36
 711 047e 1B78     		ldrb	r3, [r3]	@ zero_extendqisi2
 712 0480 DBB2     		uxtb	r3, r3
 713 0482 9A42     		cmp	r2, r3
 714 0484 10D2     		bcs	.L40
 475:Generated_Source\PSoC5/I2C_1_INT.c ****                     {
 476:Generated_Source\PSoC5/I2C_1_INT.c ****                          /* Get data from array */
 477:Generated_Source\PSoC5/I2C_1_INT.c ****                         I2C_1_DATA_REG = I2C_1_slRdBufPtr[I2C_1_slRdBufIndex];
 715              		.loc 1 477 0
 716 0486 244A     		ldr	r2, .L48+32
 717 0488 1378     		ldrb	r3, [r2]	@ zero_extendqisi2
 718 048a DBB2     		uxtb	r3, r3
 719 048c 2449     		ldr	r1, .L48+40
 720 048e 0968     		ldr	r1, [r1]
 721 0490 CB5C     		ldrb	r3, [r1, r3]	@ zero_extendqisi2
 722 0492 DBB2     		uxtb	r3, r3
 723 0494 1F49     		ldr	r1, .L48+28
 724 0496 0B70     		strb	r3, [r1]
 478:Generated_Source\PSoC5/I2C_1_INT.c ****                         I2C_1_TRANSMIT_DATA;
 725              		.loc 1 478 0
 726 0498 0421     		movs	r1, #4
 727 049a 1C4B     		ldr	r3, .L48+20
 728 049c 1970     		strb	r1, [r3]
 479:Generated_Source\PSoC5/I2C_1_INT.c ****                         I2C_1_slRdBufIndex++;
 729              		.loc 1 479 0
 730 049e 1378     		ldrb	r3, [r2]	@ zero_extendqisi2
 731 04a0 0133     		adds	r3, r3, #1
 732 04a2 DBB2     		uxtb	r3, r3
 733 04a4 1370     		strb	r3, [r2]
 734 04a6 38BD     		pop	{r3, r4, r5, pc}
 735              	.LVL11:
 736              	.L40:
 480:Generated_Source\PSoC5/I2C_1_INT.c ****                     }
 481:Generated_Source\PSoC5/I2C_1_INT.c ****                     else   /* Overflow: provide 0xFF on bus */
 482:Generated_Source\PSoC5/I2C_1_INT.c ****                     {
 483:Generated_Source\PSoC5/I2C_1_INT.c ****                         I2C_1_DATA_REG = I2C_1_OVERFLOW_RETURN;
 737              		.loc 1 483 0
 738 04a8 FF22     		movs	r2, #255
 739 04aa 1A4B     		ldr	r3, .L48+28
 740 04ac 1A70     		strb	r2, [r3]
 484:Generated_Source\PSoC5/I2C_1_INT.c ****                         I2C_1_TRANSMIT_DATA;
 741              		.loc 1 484 0
 742 04ae 0422     		movs	r2, #4
 743 04b0 013B     		subs	r3, r3, #1
 744 04b2 1A70     		strb	r2, [r3]
 485:Generated_Source\PSoC5/I2C_1_INT.c **** 
 486:Generated_Source\PSoC5/I2C_1_INT.c ****                         I2C_1_slStatus |= I2C_1_SSTAT_RD_ERR_OVFL;
 745              		.loc 1 486 0
 746 04b4 164A     		ldr	r2, .L48+24
 747 04b6 1378     		ldrb	r3, [r2]	@ zero_extendqisi2
 748 04b8 43F00403 		orr	r3, r3, #4
 749 04bc 1370     		strb	r3, [r2]
 750 04be 38BD     		pop	{r3, r4, r5, pc}
 751              	.LVL12:
 752              	.L39:
 487:Generated_Source\PSoC5/I2C_1_INT.c ****                     }
 488:Generated_Source\PSoC5/I2C_1_INT.c ****                 }
ARM GAS  C:\Users\Admin\AppData\Local\Temp\ccoJ6ZOx.s 			page 23


 489:Generated_Source\PSoC5/I2C_1_INT.c ****                 else  /* Last byte was NACKed: read complete */
 490:Generated_Source\PSoC5/I2C_1_INT.c ****                 {
 491:Generated_Source\PSoC5/I2C_1_INT.c ****                     /* Only NACK appears on bus */
 492:Generated_Source\PSoC5/I2C_1_INT.c ****                     I2C_1_DATA_REG = I2C_1_OVERFLOW_RETURN;
 753              		.loc 1 492 0
 754 04c0 FF22     		movs	r2, #255
 755 04c2 144B     		ldr	r3, .L48+28
 756 04c4 1A70     		strb	r2, [r3]
 493:Generated_Source\PSoC5/I2C_1_INT.c ****                     I2C_1_NAK_AND_TRANSMIT;
 757              		.loc 1 493 0
 758 04c6 0022     		movs	r2, #0
 759 04c8 013B     		subs	r3, r3, #1
 760 04ca 1A70     		strb	r2, [r3]
 494:Generated_Source\PSoC5/I2C_1_INT.c **** 
 495:Generated_Source\PSoC5/I2C_1_INT.c ****                     I2C_1_slStatus &= ((uint8) ~I2C_1_SSTAT_RD_BUSY);
 761              		.loc 1 495 0
 762 04cc 104B     		ldr	r3, .L48+24
 763 04ce 1A78     		ldrb	r2, [r3]	@ zero_extendqisi2
 764 04d0 02F0FD02 		and	r2, r2, #253
 765 04d4 1A70     		strb	r2, [r3]
 496:Generated_Source\PSoC5/I2C_1_INT.c ****                     I2C_1_slStatus |= ((uint8)  I2C_1_SSTAT_RD_CMPLT);
 766              		.loc 1 496 0
 767 04d6 1A78     		ldrb	r2, [r3]	@ zero_extendqisi2
 768 04d8 42F00102 		orr	r2, r2, #1
 769 04dc 1A70     		strb	r2, [r3]
 497:Generated_Source\PSoC5/I2C_1_INT.c **** 
 498:Generated_Source\PSoC5/I2C_1_INT.c ****                     I2C_1_state = I2C_1_SM_IDLE;
 770              		.loc 1 498 0
 771 04de 1022     		movs	r2, #16
 772 04e0 074B     		ldr	r3, .L48+8
 773 04e2 1A70     		strb	r2, [r3]
 774 04e4 38BD     		pop	{r3, r4, r5, pc}
 775              	.LVL13:
 776              	.L38:
 499:Generated_Source\PSoC5/I2C_1_INT.c ****                 }
 500:Generated_Source\PSoC5/I2C_1_INT.c ****             }
 501:Generated_Source\PSoC5/I2C_1_INT.c ****             else
 502:Generated_Source\PSoC5/I2C_1_INT.c ****             {
 503:Generated_Source\PSoC5/I2C_1_INT.c ****             #if(I2C_1_TIMEOUT_ENABLED)
 504:Generated_Source\PSoC5/I2C_1_INT.c ****                 /* Exit interrupt to take chance for timeout timer to handle this case */
 505:Generated_Source\PSoC5/I2C_1_INT.c ****                 I2C_1_DisableInt();
 506:Generated_Source\PSoC5/I2C_1_INT.c ****                 I2C_1_ClearPendingInt();
 507:Generated_Source\PSoC5/I2C_1_INT.c ****             #else
 508:Generated_Source\PSoC5/I2C_1_INT.c ****                 /* Block execution flow: unexpected condition */
 509:Generated_Source\PSoC5/I2C_1_INT.c ****                 CYASSERT(0u != 0u);
 777              		.loc 1 509 0 discriminator 1
 778 04e6 0020     		movs	r0, #0
 779 04e8 FFF7FEFF 		bl	CyHalt
 780              	.LVL14:
 781 04ec 38BD     		pop	{r3, r4, r5, pc}
 782              	.LVL15:
 783              	.L29:
 510:Generated_Source\PSoC5/I2C_1_INT.c ****             #endif /* (I2C_1_TIMEOUT_ENABLED) */
 511:Generated_Source\PSoC5/I2C_1_INT.c ****             }
 512:Generated_Source\PSoC5/I2C_1_INT.c ****         }
 513:Generated_Source\PSoC5/I2C_1_INT.c ****     #endif /* (I2C_1_MODE_SLAVE_ENABLED) */
 514:Generated_Source\PSoC5/I2C_1_INT.c ****     }
ARM GAS  C:\Users\Admin\AppData\Local\Temp\ccoJ6ZOx.s 			page 24


 515:Generated_Source\PSoC5/I2C_1_INT.c ****     else
 516:Generated_Source\PSoC5/I2C_1_INT.c ****     {
 517:Generated_Source\PSoC5/I2C_1_INT.c ****         /* The FSM skips master and slave processing: return to IDLE */
 518:Generated_Source\PSoC5/I2C_1_INT.c ****         I2C_1_state = I2C_1_SM_IDLE;
 784              		.loc 1 518 0
 785 04ee 1022     		movs	r2, #16
 786 04f0 034B     		ldr	r3, .L48+8
 787 04f2 1A70     		strb	r2, [r3]
 788              	.L1:
 789 04f4 38BD     		pop	{r3, r4, r5, pc}
 790              	.LVL16:
 791              	.L49:
 792 04f6 00BF     		.align	2
 793              	.L48:
 794 04f8 00000000 		.word	I2C_1_mstrControl
 795 04fc 00000000 		.word	I2C_1_mstrStatus
 796 0500 00000000 		.word	I2C_1_state
 797 0504 80E100E0 		.word	-536813184
 798 0508 D6490040 		.word	1073760726
 799 050c D7490040 		.word	1073760727
 800 0510 00000000 		.word	I2C_1_slStatus
 801 0514 D8490040 		.word	1073760728
 802 0518 00000000 		.word	I2C_1_slRdBufIndex
 803 051c 00000000 		.word	I2C_1_slRdBufSize
 804 0520 00000000 		.word	I2C_1_slRdBufPtr
 805 0524 00000000 		.word	I2C_1_slWrBufIndex
 806 0528 00000000 		.word	I2C_1_slWrBufSize
 807 052c 00000000 		.word	I2C_1_slWrBufPtr
 808              		.cfi_endproc
 809              	.LFE0:
 810              		.size	I2C_1_ISR, .-I2C_1_ISR
 811              		.text
 812              	.Letext0:
 813              		.file 2 "Generated_Source\\PSoC5\\cytypes.h"
 814              		.file 3 "Generated_Source\\PSoC5\\I2C_1_PVT.h"
 815              		.file 4 "Generated_Source\\PSoC5\\CyLib.h"
 816              		.section	.debug_info,"",%progbits
 817              	.Ldebug_info0:
 818 0000 EF010000 		.4byte	0x1ef
 819 0004 0400     		.2byte	0x4
 820 0006 00000000 		.4byte	.Ldebug_abbrev0
 821 000a 04       		.byte	0x4
 822 000b 01       		.uleb128 0x1
 823 000c 30010000 		.4byte	.LASF36
 824 0010 0C       		.byte	0xc
 825 0011 AA020000 		.4byte	.LASF37
 826 0015 A2000000 		.4byte	.LASF38
 827 0019 00000000 		.4byte	.Ldebug_ranges0+0
 828 001d 00000000 		.4byte	0
 829 0021 00000000 		.4byte	.Ldebug_line0
 830 0025 02       		.uleb128 0x2
 831 0026 01       		.byte	0x1
 832 0027 06       		.byte	0x6
 833 0028 01030000 		.4byte	.LASF0
 834 002c 02       		.uleb128 0x2
 835 002d 01       		.byte	0x1
 836 002e 08       		.byte	0x8
ARM GAS  C:\Users\Admin\AppData\Local\Temp\ccoJ6ZOx.s 			page 25


 837 002f 22010000 		.4byte	.LASF1
 838 0033 02       		.uleb128 0x2
 839 0034 02       		.byte	0x2
 840 0035 05       		.byte	0x5
 841 0036 A0020000 		.4byte	.LASF2
 842 003a 02       		.uleb128 0x2
 843 003b 02       		.byte	0x2
 844 003c 07       		.byte	0x7
 845 003d 5F000000 		.4byte	.LASF3
 846 0041 02       		.uleb128 0x2
 847 0042 04       		.byte	0x4
 848 0043 05       		.byte	0x5
 849 0044 56000000 		.4byte	.LASF4
 850 0048 02       		.uleb128 0x2
 851 0049 04       		.byte	0x4
 852 004a 07       		.byte	0x7
 853 004b C3010000 		.4byte	.LASF5
 854 004f 02       		.uleb128 0x2
 855 0050 08       		.byte	0x8
 856 0051 05       		.byte	0x5
 857 0052 7A020000 		.4byte	.LASF6
 858 0056 02       		.uleb128 0x2
 859 0057 08       		.byte	0x8
 860 0058 07       		.byte	0x7
 861 0059 42020000 		.4byte	.LASF7
 862 005d 03       		.uleb128 0x3
 863 005e 04       		.byte	0x4
 864 005f 05       		.byte	0x5
 865 0060 696E7400 		.ascii	"int\000"
 866 0064 02       		.uleb128 0x2
 867 0065 04       		.byte	0x4
 868 0066 07       		.byte	0x7
 869 0067 35020000 		.4byte	.LASF8
 870 006b 04       		.uleb128 0x4
 871 006c D5010000 		.4byte	.LASF9
 872 0070 02       		.byte	0x2
 873 0071 E901     		.2byte	0x1e9
 874 0073 2C000000 		.4byte	0x2c
 875 0077 04       		.uleb128 0x4
 876 0078 22020000 		.4byte	.LASF10
 877 007c 02       		.byte	0x2
 878 007d EB01     		.2byte	0x1eb
 879 007f 48000000 		.4byte	0x48
 880 0083 02       		.uleb128 0x2
 881 0084 04       		.byte	0x4
 882 0085 04       		.byte	0x4
 883 0086 97000000 		.4byte	.LASF11
 884 008a 02       		.uleb128 0x2
 885 008b 08       		.byte	0x8
 886 008c 04       		.byte	0x4
 887 008d ED010000 		.4byte	.LASF12
 888 0091 02       		.uleb128 0x2
 889 0092 01       		.byte	0x1
 890 0093 08       		.byte	0x8
 891 0094 88020000 		.4byte	.LASF13
 892 0098 04       		.uleb128 0x4
 893 0099 BE010000 		.4byte	.LASF14
ARM GAS  C:\Users\Admin\AppData\Local\Temp\ccoJ6ZOx.s 			page 26


 894 009d 02       		.byte	0x2
 895 009e 9302     		.2byte	0x293
 896 00a0 A4000000 		.4byte	0xa4
 897 00a4 05       		.uleb128 0x5
 898 00a5 6B000000 		.4byte	0x6b
 899 00a9 04       		.uleb128 0x4
 900 00aa 07000000 		.4byte	.LASF15
 901 00ae 02       		.byte	0x2
 902 00af 9502     		.2byte	0x295
 903 00b1 B5000000 		.4byte	0xb5
 904 00b5 05       		.uleb128 0x5
 905 00b6 77000000 		.4byte	0x77
 906 00ba 02       		.uleb128 0x2
 907 00bb 08       		.byte	0x8
 908 00bc 04       		.byte	0x4
 909 00bd F5020000 		.4byte	.LASF16
 910 00c1 02       		.uleb128 0x2
 911 00c2 04       		.byte	0x4
 912 00c3 07       		.byte	0x7
 913 00c4 71020000 		.4byte	.LASF17
 914 00c8 06       		.uleb128 0x6
 915 00c9 05020000 		.4byte	.LASF39
 916 00cd 01       		.byte	0x1
 917 00ce 2E       		.byte	0x2e
 918 00cf 00000000 		.4byte	.LFB0
 919 00d3 30050000 		.4byte	.LFE0-.LFB0
 920 00d7 01       		.uleb128 0x1
 921 00d8 9C       		.byte	0x9c
 922 00d9 31010000 		.4byte	0x131
 923 00dd 07       		.uleb128 0x7
 924 00de 9D000000 		.4byte	.LASF18
 925 00e2 01       		.byte	0x1
 926 00e3 31       		.byte	0x31
 927 00e4 6B000000 		.4byte	0x6b
 928 00e8 00000000 		.4byte	.LLST0
 929 00ec 07       		.uleb128 0x7
 930 00ed 00000000 		.4byte	.LASF19
 931 00f1 01       		.byte	0x1
 932 00f2 34       		.byte	0x34
 933 00f3 6B000000 		.4byte	0x6b
 934 00f7 13000000 		.4byte	.LLST1
 935 00fb 08       		.uleb128 0x8
 936 00fc A8010000 		.4byte	.LVL2
 937 0100 E7010000 		.4byte	0x1e7
 938 0104 0E010000 		.4byte	0x10e
 939 0108 09       		.uleb128 0x9
 940 0109 01       		.uleb128 0x1
 941 010a 50       		.byte	0x50
 942 010b 01       		.uleb128 0x1
 943 010c 30       		.byte	0x30
 944 010d 00       		.byte	0
 945 010e 08       		.uleb128 0x8
 946 010f 0C030000 		.4byte	.LVL4
 947 0113 E7010000 		.4byte	0x1e7
 948 0117 21010000 		.4byte	0x121
 949 011b 09       		.uleb128 0x9
 950 011c 01       		.uleb128 0x1
ARM GAS  C:\Users\Admin\AppData\Local\Temp\ccoJ6ZOx.s 			page 27


 951 011d 50       		.byte	0x50
 952 011e 01       		.uleb128 0x1
 953 011f 30       		.byte	0x30
 954 0120 00       		.byte	0
 955 0121 0A       		.uleb128 0xa
 956 0122 EC040000 		.4byte	.LVL14
 957 0126 E7010000 		.4byte	0x1e7
 958 012a 09       		.uleb128 0x9
 959 012b 01       		.uleb128 0x1
 960 012c 50       		.byte	0x50
 961 012d 01       		.uleb128 0x1
 962 012e 30       		.byte	0x30
 963 012f 00       		.byte	0
 964 0130 00       		.byte	0
 965 0131 0B       		.uleb128 0xb
 966 0132 29020000 		.4byte	.LASF20
 967 0136 03       		.byte	0x3
 968 0137 23       		.byte	0x23
 969 0138 A4000000 		.4byte	0xa4
 970 013c 0B       		.uleb128 0xb
 971 013d 59020000 		.4byte	.LASF21
 972 0141 03       		.byte	0x3
 973 0142 27       		.byte	0x27
 974 0143 A4000000 		.4byte	0xa4
 975 0147 0B       		.uleb128 0xb
 976 0148 21030000 		.4byte	.LASF22
 977 014c 03       		.byte	0x3
 978 014d 28       		.byte	0x28
 979 014e A4000000 		.4byte	0xa4
 980 0152 0B       		.uleb128 0xb
 981 0153 8D020000 		.4byte	.LASF23
 982 0157 03       		.byte	0x3
 983 0158 2B       		.byte	0x2b
 984 0159 5D010000 		.4byte	0x15d
 985 015d 0C       		.uleb128 0xc
 986 015e 04       		.byte	0x4
 987 015f A4000000 		.4byte	0xa4
 988 0163 0B       		.uleb128 0xb
 989 0164 0D030000 		.4byte	.LASF24
 990 0168 03       		.byte	0x3
 991 0169 2C       		.byte	0x2c
 992 016a A4000000 		.4byte	0xa4
 993 016e 0B       		.uleb128 0xb
 994 016f 1F000000 		.4byte	.LASF25
 995 0173 03       		.byte	0x3
 996 0174 2D       		.byte	0x2d
 997 0175 A4000000 		.4byte	0xa4
 998 0179 0B       		.uleb128 0xb
 999 017a 43000000 		.4byte	.LASF26
 1000 017e 03       		.byte	0x3
 1001 017f 30       		.byte	0x30
 1002 0180 5D010000 		.4byte	0x15d
 1003 0184 0B       		.uleb128 0xb
 1004 0185 72000000 		.4byte	.LASF27
 1005 0189 03       		.byte	0x3
 1006 018a 31       		.byte	0x31
 1007 018b A4000000 		.4byte	0xa4
ARM GAS  C:\Users\Admin\AppData\Local\Temp\ccoJ6ZOx.s 			page 28


 1008 018f 0B       		.uleb128 0xb
 1009 0190 CD020000 		.4byte	.LASF28
 1010 0194 03       		.byte	0x3
 1011 0195 32       		.byte	0x32
 1012 0196 A4000000 		.4byte	0xa4
 1013 019a 0B       		.uleb128 0xb
 1014 019b 34000000 		.4byte	.LASF29
 1015 019f 03       		.byte	0x3
 1016 01a0 38       		.byte	0x38
 1017 01a1 A4000000 		.4byte	0xa4
 1018 01a5 0B       		.uleb128 0xb
 1019 01a6 86000000 		.4byte	.LASF30
 1020 01aa 03       		.byte	0x3
 1021 01ab 3B       		.byte	0x3b
 1022 01ac 5D010000 		.4byte	0x15d
 1023 01b0 0B       		.uleb128 0xb
 1024 01b1 0D000000 		.4byte	.LASF31
 1025 01b5 03       		.byte	0x3
 1026 01b6 3C       		.byte	0x3c
 1027 01b7 A4000000 		.4byte	0xa4
 1028 01bb 0B       		.uleb128 0xb
 1029 01bc E2020000 		.4byte	.LASF32
 1030 01c0 03       		.byte	0x3
 1031 01c1 3D       		.byte	0x3d
 1032 01c2 A4000000 		.4byte	0xa4
 1033 01c6 0B       		.uleb128 0xb
 1034 01c7 F4010000 		.4byte	.LASF33
 1035 01cb 03       		.byte	0x3
 1036 01cc 40       		.byte	0x40
 1037 01cd 5D010000 		.4byte	0x15d
 1038 01d1 0B       		.uleb128 0xb
 1039 01d2 DB010000 		.4byte	.LASF34
 1040 01d6 03       		.byte	0x3
 1041 01d7 41       		.byte	0x41
 1042 01d8 A4000000 		.4byte	0xa4
 1043 01dc 0B       		.uleb128 0xb
 1044 01dd 0F020000 		.4byte	.LASF35
 1045 01e1 03       		.byte	0x3
 1046 01e2 42       		.byte	0x42
 1047 01e3 A4000000 		.4byte	0xa4
 1048 01e7 0D       		.uleb128 0xd
 1049 01e8 6A020000 		.4byte	.LASF40
 1050 01ec 6A020000 		.4byte	.LASF40
 1051 01f0 04       		.byte	0x4
 1052 01f1 7F       		.byte	0x7f
 1053 01f2 00       		.byte	0
 1054              		.section	.debug_abbrev,"",%progbits
 1055              	.Ldebug_abbrev0:
 1056 0000 01       		.uleb128 0x1
 1057 0001 11       		.uleb128 0x11
 1058 0002 01       		.byte	0x1
 1059 0003 25       		.uleb128 0x25
 1060 0004 0E       		.uleb128 0xe
 1061 0005 13       		.uleb128 0x13
 1062 0006 0B       		.uleb128 0xb
 1063 0007 03       		.uleb128 0x3
 1064 0008 0E       		.uleb128 0xe
ARM GAS  C:\Users\Admin\AppData\Local\Temp\ccoJ6ZOx.s 			page 29


 1065 0009 1B       		.uleb128 0x1b
 1066 000a 0E       		.uleb128 0xe
 1067 000b 55       		.uleb128 0x55
 1068 000c 17       		.uleb128 0x17
 1069 000d 11       		.uleb128 0x11
 1070 000e 01       		.uleb128 0x1
 1071 000f 10       		.uleb128 0x10
 1072 0010 17       		.uleb128 0x17
 1073 0011 00       		.byte	0
 1074 0012 00       		.byte	0
 1075 0013 02       		.uleb128 0x2
 1076 0014 24       		.uleb128 0x24
 1077 0015 00       		.byte	0
 1078 0016 0B       		.uleb128 0xb
 1079 0017 0B       		.uleb128 0xb
 1080 0018 3E       		.uleb128 0x3e
 1081 0019 0B       		.uleb128 0xb
 1082 001a 03       		.uleb128 0x3
 1083 001b 0E       		.uleb128 0xe
 1084 001c 00       		.byte	0
 1085 001d 00       		.byte	0
 1086 001e 03       		.uleb128 0x3
 1087 001f 24       		.uleb128 0x24
 1088 0020 00       		.byte	0
 1089 0021 0B       		.uleb128 0xb
 1090 0022 0B       		.uleb128 0xb
 1091 0023 3E       		.uleb128 0x3e
 1092 0024 0B       		.uleb128 0xb
 1093 0025 03       		.uleb128 0x3
 1094 0026 08       		.uleb128 0x8
 1095 0027 00       		.byte	0
 1096 0028 00       		.byte	0
 1097 0029 04       		.uleb128 0x4
 1098 002a 16       		.uleb128 0x16
 1099 002b 00       		.byte	0
 1100 002c 03       		.uleb128 0x3
 1101 002d 0E       		.uleb128 0xe
 1102 002e 3A       		.uleb128 0x3a
 1103 002f 0B       		.uleb128 0xb
 1104 0030 3B       		.uleb128 0x3b
 1105 0031 05       		.uleb128 0x5
 1106 0032 49       		.uleb128 0x49
 1107 0033 13       		.uleb128 0x13
 1108 0034 00       		.byte	0
 1109 0035 00       		.byte	0
 1110 0036 05       		.uleb128 0x5
 1111 0037 35       		.uleb128 0x35
 1112 0038 00       		.byte	0
 1113 0039 49       		.uleb128 0x49
 1114 003a 13       		.uleb128 0x13
 1115 003b 00       		.byte	0
 1116 003c 00       		.byte	0
 1117 003d 06       		.uleb128 0x6
 1118 003e 2E       		.uleb128 0x2e
 1119 003f 01       		.byte	0x1
 1120 0040 3F       		.uleb128 0x3f
 1121 0041 19       		.uleb128 0x19
ARM GAS  C:\Users\Admin\AppData\Local\Temp\ccoJ6ZOx.s 			page 30


 1122 0042 03       		.uleb128 0x3
 1123 0043 0E       		.uleb128 0xe
 1124 0044 3A       		.uleb128 0x3a
 1125 0045 0B       		.uleb128 0xb
 1126 0046 3B       		.uleb128 0x3b
 1127 0047 0B       		.uleb128 0xb
 1128 0048 27       		.uleb128 0x27
 1129 0049 19       		.uleb128 0x19
 1130 004a 11       		.uleb128 0x11
 1131 004b 01       		.uleb128 0x1
 1132 004c 12       		.uleb128 0x12
 1133 004d 06       		.uleb128 0x6
 1134 004e 40       		.uleb128 0x40
 1135 004f 18       		.uleb128 0x18
 1136 0050 9742     		.uleb128 0x2117
 1137 0052 19       		.uleb128 0x19
 1138 0053 01       		.uleb128 0x1
 1139 0054 13       		.uleb128 0x13
 1140 0055 00       		.byte	0
 1141 0056 00       		.byte	0
 1142 0057 07       		.uleb128 0x7
 1143 0058 34       		.uleb128 0x34
 1144 0059 00       		.byte	0
 1145 005a 03       		.uleb128 0x3
 1146 005b 0E       		.uleb128 0xe
 1147 005c 3A       		.uleb128 0x3a
 1148 005d 0B       		.uleb128 0xb
 1149 005e 3B       		.uleb128 0x3b
 1150 005f 0B       		.uleb128 0xb
 1151 0060 49       		.uleb128 0x49
 1152 0061 13       		.uleb128 0x13
 1153 0062 02       		.uleb128 0x2
 1154 0063 17       		.uleb128 0x17
 1155 0064 00       		.byte	0
 1156 0065 00       		.byte	0
 1157 0066 08       		.uleb128 0x8
 1158 0067 898201   		.uleb128 0x4109
 1159 006a 01       		.byte	0x1
 1160 006b 11       		.uleb128 0x11
 1161 006c 01       		.uleb128 0x1
 1162 006d 31       		.uleb128 0x31
 1163 006e 13       		.uleb128 0x13
 1164 006f 01       		.uleb128 0x1
 1165 0070 13       		.uleb128 0x13
 1166 0071 00       		.byte	0
 1167 0072 00       		.byte	0
 1168 0073 09       		.uleb128 0x9
 1169 0074 8A8201   		.uleb128 0x410a
 1170 0077 00       		.byte	0
 1171 0078 02       		.uleb128 0x2
 1172 0079 18       		.uleb128 0x18
 1173 007a 9142     		.uleb128 0x2111
 1174 007c 18       		.uleb128 0x18
 1175 007d 00       		.byte	0
 1176 007e 00       		.byte	0
 1177 007f 0A       		.uleb128 0xa
 1178 0080 898201   		.uleb128 0x4109
ARM GAS  C:\Users\Admin\AppData\Local\Temp\ccoJ6ZOx.s 			page 31


 1179 0083 01       		.byte	0x1
 1180 0084 11       		.uleb128 0x11
 1181 0085 01       		.uleb128 0x1
 1182 0086 31       		.uleb128 0x31
 1183 0087 13       		.uleb128 0x13
 1184 0088 00       		.byte	0
 1185 0089 00       		.byte	0
 1186 008a 0B       		.uleb128 0xb
 1187 008b 34       		.uleb128 0x34
 1188 008c 00       		.byte	0
 1189 008d 03       		.uleb128 0x3
 1190 008e 0E       		.uleb128 0xe
 1191 008f 3A       		.uleb128 0x3a
 1192 0090 0B       		.uleb128 0xb
 1193 0091 3B       		.uleb128 0x3b
 1194 0092 0B       		.uleb128 0xb
 1195 0093 49       		.uleb128 0x49
 1196 0094 13       		.uleb128 0x13
 1197 0095 3F       		.uleb128 0x3f
 1198 0096 19       		.uleb128 0x19
 1199 0097 3C       		.uleb128 0x3c
 1200 0098 19       		.uleb128 0x19
 1201 0099 00       		.byte	0
 1202 009a 00       		.byte	0
 1203 009b 0C       		.uleb128 0xc
 1204 009c 0F       		.uleb128 0xf
 1205 009d 00       		.byte	0
 1206 009e 0B       		.uleb128 0xb
 1207 009f 0B       		.uleb128 0xb
 1208 00a0 49       		.uleb128 0x49
 1209 00a1 13       		.uleb128 0x13
 1210 00a2 00       		.byte	0
 1211 00a3 00       		.byte	0
 1212 00a4 0D       		.uleb128 0xd
 1213 00a5 2E       		.uleb128 0x2e
 1214 00a6 00       		.byte	0
 1215 00a7 3F       		.uleb128 0x3f
 1216 00a8 19       		.uleb128 0x19
 1217 00a9 3C       		.uleb128 0x3c
 1218 00aa 19       		.uleb128 0x19
 1219 00ab 6E       		.uleb128 0x6e
 1220 00ac 0E       		.uleb128 0xe
 1221 00ad 03       		.uleb128 0x3
 1222 00ae 0E       		.uleb128 0xe
 1223 00af 3A       		.uleb128 0x3a
 1224 00b0 0B       		.uleb128 0xb
 1225 00b1 3B       		.uleb128 0x3b
 1226 00b2 0B       		.uleb128 0xb
 1227 00b3 00       		.byte	0
 1228 00b4 00       		.byte	0
 1229 00b5 00       		.byte	0
 1230              		.section	.debug_loc,"",%progbits
 1231              	.Ldebug_loc0:
 1232              	.LLST0:
 1233 0000 38040000 		.4byte	.LVL8
 1234 0004 54040000 		.4byte	.LVL9
 1235 0008 0100     		.2byte	0x1
ARM GAS  C:\Users\Admin\AppData\Local\Temp\ccoJ6ZOx.s 			page 32


 1236 000a 51       		.byte	0x51
 1237 000b 00000000 		.4byte	0
 1238 000f 00000000 		.4byte	0
 1239              	.LLST1:
 1240 0013 08000000 		.4byte	.LVL0
 1241 0017 B8000000 		.4byte	.LVL1
 1242 001b 0100     		.2byte	0x1
 1243 001d 54       		.byte	0x54
 1244 001e B8000000 		.4byte	.LVL1
 1245 0022 AC010000 		.4byte	.LVL3
 1246 0026 0100     		.2byte	0x1
 1247 0028 55       		.byte	0x55
 1248 0029 AC010000 		.4byte	.LVL3
 1249 002d F6040000 		.4byte	.LVL16
 1250 0031 0100     		.2byte	0x1
 1251 0033 54       		.byte	0x54
 1252 0034 00000000 		.4byte	0
 1253 0038 00000000 		.4byte	0
 1254              		.section	.debug_aranges,"",%progbits
 1255 0000 1C000000 		.4byte	0x1c
 1256 0004 0200     		.2byte	0x2
 1257 0006 00000000 		.4byte	.Ldebug_info0
 1258 000a 04       		.byte	0x4
 1259 000b 00       		.byte	0
 1260 000c 0000     		.2byte	0
 1261 000e 0000     		.2byte	0
 1262 0010 00000000 		.4byte	.LFB0
 1263 0014 30050000 		.4byte	.LFE0-.LFB0
 1264 0018 00000000 		.4byte	0
 1265 001c 00000000 		.4byte	0
 1266              		.section	.debug_ranges,"",%progbits
 1267              	.Ldebug_ranges0:
 1268 0000 00000000 		.4byte	.LFB0
 1269 0004 30050000 		.4byte	.LFE0
 1270 0008 00000000 		.4byte	0
 1271 000c 00000000 		.4byte	0
 1272              		.section	.debug_line,"",%progbits
 1273              	.Ldebug_line0:
 1274 0000 7F010000 		.section	.debug_str,"MS",%progbits,1
 1274      02006000 
 1274      00000201 
 1274      FB0E0D00 
 1274      01010101 
 1275              	.LASF19:
 1276 0000 746D7043 		.ascii	"tmpCsr\000"
 1276      737200
 1277              	.LASF15:
 1278 0007 72656733 		.ascii	"reg32\000"
 1278      3200
 1279              	.LASF31:
 1280 000d 4932435F 		.ascii	"I2C_1_slRdBufSize\000"
 1280      315F736C 
 1280      52644275 
 1280      6653697A 
 1280      6500
 1281              	.LASF25:
 1282 001f 4932435F 		.ascii	"I2C_1_mstrRdBufIndex\000"
ARM GAS  C:\Users\Admin\AppData\Local\Temp\ccoJ6ZOx.s 			page 33


 1282      315F6D73 
 1282      74725264 
 1282      42756649 
 1282      6E646578 
 1283              	.LASF29:
 1284 0034 4932435F 		.ascii	"I2C_1_slStatus\000"
 1284      315F736C 
 1284      53746174 
 1284      757300
 1285              	.LASF26:
 1286 0043 4932435F 		.ascii	"I2C_1_mstrWrBufPtr\000"
 1286      315F6D73 
 1286      74725772 
 1286      42756650 
 1286      747200
 1287              	.LASF4:
 1288 0056 6C6F6E67 		.ascii	"long int\000"
 1288      20696E74 
 1288      00
 1289              	.LASF3:
 1290 005f 73686F72 		.ascii	"short unsigned int\000"
 1290      7420756E 
 1290      7369676E 
 1290      65642069 
 1290      6E7400
 1291              	.LASF27:
 1292 0072 4932435F 		.ascii	"I2C_1_mstrWrBufSize\000"
 1292      315F6D73 
 1292      74725772 
 1292      42756653 
 1292      697A6500 
 1293              	.LASF30:
 1294 0086 4932435F 		.ascii	"I2C_1_slRdBufPtr\000"
 1294      315F736C 
 1294      52644275 
 1294      66507472 
 1294      00
 1295              	.LASF11:
 1296 0097 666C6F61 		.ascii	"float\000"
 1296      7400
 1297              	.LASF18:
 1298 009d 746D7038 		.ascii	"tmp8\000"
 1298      00
 1299              	.LASF38:
 1300 00a2 443A5C44 		.ascii	"D:\\Documentos\\GitHub\\Afinador-Guitarra-PsoC-5LP\\"
 1300      6F63756D 
 1300      656E746F 
 1300      735C4769 
 1300      74487562 
 1301 00d2 50726F79 		.ascii	"ProyectoPDS\\ProyectoPDS solo matlab\\lab5-fiuna-fi"
 1301      6563746F 
 1301      5044535C 
 1301      50726F79 
 1301      6563746F 
 1302 0103 6C74726F 		.ascii	"ltros_sencillos\\Design01.cydsn\000"
 1302      735F7365 
 1302      6E63696C 
ARM GAS  C:\Users\Admin\AppData\Local\Temp\ccoJ6ZOx.s 			page 34


 1302      6C6F735C 
 1302      44657369 
 1303              	.LASF1:
 1304 0122 756E7369 		.ascii	"unsigned char\000"
 1304      676E6564 
 1304      20636861 
 1304      7200
 1305              	.LASF36:
 1306 0130 474E5520 		.ascii	"GNU C11 5.4.1 20160609 (release) [ARM/embedded-5-br"
 1306      43313120 
 1306      352E342E 
 1306      31203230 
 1306      31363036 
 1307 0163 616E6368 		.ascii	"anch revision 237715] -mcpu=cortex-m3 -mthumb -g -O"
 1307      20726576 
 1307      6973696F 
 1307      6E203233 
 1307      37373135 
 1308 0196 67202D66 		.ascii	"g -ffunction-sections -ffat-lto-objects\000"
 1308      66756E63 
 1308      74696F6E 
 1308      2D736563 
 1308      74696F6E 
 1309              	.LASF14:
 1310 01be 72656738 		.ascii	"reg8\000"
 1310      00
 1311              	.LASF5:
 1312 01c3 6C6F6E67 		.ascii	"long unsigned int\000"
 1312      20756E73 
 1312      69676E65 
 1312      6420696E 
 1312      7400
 1313              	.LASF9:
 1314 01d5 75696E74 		.ascii	"uint8\000"
 1314      3800
 1315              	.LASF34:
 1316 01db 4932435F 		.ascii	"I2C_1_slWrBufSize\000"
 1316      315F736C 
 1316      57724275 
 1316      6653697A 
 1316      6500
 1317              	.LASF12:
 1318 01ed 646F7562 		.ascii	"double\000"
 1318      6C6500
 1319              	.LASF33:
 1320 01f4 4932435F 		.ascii	"I2C_1_slWrBufPtr\000"
 1320      315F736C 
 1320      57724275 
 1320      66507472 
 1320      00
 1321              	.LASF39:
 1322 0205 4932435F 		.ascii	"I2C_1_ISR\000"
 1322      315F4953 
 1322      5200
 1323              	.LASF35:
 1324 020f 4932435F 		.ascii	"I2C_1_slWrBufIndex\000"
 1324      315F736C 
ARM GAS  C:\Users\Admin\AppData\Local\Temp\ccoJ6ZOx.s 			page 35


 1324      57724275 
 1324      66496E64 
 1324      657800
 1325              	.LASF10:
 1326 0222 75696E74 		.ascii	"uint32\000"
 1326      333200
 1327              	.LASF20:
 1328 0229 4932435F 		.ascii	"I2C_1_state\000"
 1328      315F7374 
 1328      61746500 
 1329              	.LASF8:
 1330 0235 756E7369 		.ascii	"unsigned int\000"
 1330      676E6564 
 1330      20696E74 
 1330      00
 1331              	.LASF7:
 1332 0242 6C6F6E67 		.ascii	"long long unsigned int\000"
 1332      206C6F6E 
 1332      6720756E 
 1332      7369676E 
 1332      65642069 
 1333              	.LASF21:
 1334 0259 4932435F 		.ascii	"I2C_1_mstrStatus\000"
 1334      315F6D73 
 1334      74725374 
 1334      61747573 
 1334      00
 1335              	.LASF40:
 1336 026a 43794861 		.ascii	"CyHalt\000"
 1336      6C7400
 1337              	.LASF17:
 1338 0271 73697A65 		.ascii	"sizetype\000"
 1338      74797065 
 1338      00
 1339              	.LASF6:
 1340 027a 6C6F6E67 		.ascii	"long long int\000"
 1340      206C6F6E 
 1340      6720696E 
 1340      7400
 1341              	.LASF13:
 1342 0288 63686172 		.ascii	"char\000"
 1342      00
 1343              	.LASF23:
 1344 028d 4932435F 		.ascii	"I2C_1_mstrRdBufPtr\000"
 1344      315F6D73 
 1344      74725264 
 1344      42756650 
 1344      747200
 1345              	.LASF2:
 1346 02a0 73686F72 		.ascii	"short int\000"
 1346      7420696E 
 1346      7400
 1347              	.LASF37:
 1348 02aa 47656E65 		.ascii	"Generated_Source\\PSoC5\\I2C_1_INT.c\000"
 1348      72617465 
 1348      645F536F 
 1348      75726365 
ARM GAS  C:\Users\Admin\AppData\Local\Temp\ccoJ6ZOx.s 			page 36


 1348      5C50536F 
 1349              	.LASF28:
 1350 02cd 4932435F 		.ascii	"I2C_1_mstrWrBufIndex\000"
 1350      315F6D73 
 1350      74725772 
 1350      42756649 
 1350      6E646578 
 1351              	.LASF32:
 1352 02e2 4932435F 		.ascii	"I2C_1_slRdBufIndex\000"
 1352      315F736C 
 1352      52644275 
 1352      66496E64 
 1352      657800
 1353              	.LASF16:
 1354 02f5 6C6F6E67 		.ascii	"long double\000"
 1354      20646F75 
 1354      626C6500 
 1355              	.LASF0:
 1356 0301 7369676E 		.ascii	"signed char\000"
 1356      65642063 
 1356      68617200 
 1357              	.LASF24:
 1358 030d 4932435F 		.ascii	"I2C_1_mstrRdBufSize\000"
 1358      315F6D73 
 1358      74725264 
 1358      42756653 
 1358      697A6500 
 1359              	.LASF22:
 1360 0321 4932435F 		.ascii	"I2C_1_mstrControl\000"
 1360      315F6D73 
 1360      7472436F 
 1360      6E74726F 
 1360      6C00
 1361              		.ident	"GCC: (GNU Tools for ARM Embedded Processors) 5.4.1 20160609 (release) [ARM/embedded-5-bran
