ARM GAS  C:\Users\Admin\AppData\Local\Temp\ccoixPwk.s 			page 1


   1              		.syntax unified
   2              		.cpu cortex-m3
   3              		.fpu softvfp
   4              		.eabi_attribute 20, 1
   5              		.eabi_attribute 21, 1
   6              		.eabi_attribute 23, 3
   7              		.eabi_attribute 24, 1
   8              		.eabi_attribute 25, 1
   9              		.eabi_attribute 26, 1
  10              		.eabi_attribute 30, 1
  11              		.eabi_attribute 34, 1
  12              		.eabi_attribute 18, 4
  13              		.thumb
  14              		.syntax unified
  15              		.file	"lcd_i2c.c"
  16              		.text
  17              	.Ltext0:
  18              		.cfi_sections	.debug_frame
  19              		.section	.text.I2C_WriteByte,"ax",%progbits
  20              		.align	2
  21              		.thumb
  22              		.thumb_func
  23              		.type	I2C_WriteByte, %function
  24              	I2C_WriteByte:
  25              	.LFB63:
  26              		.file 1 "lcd_i2c.c"
   1:lcd_i2c.c     **** #include "lcd_i2c.h"
   2:lcd_i2c.c     **** #include "project.h" 
   3:lcd_i2c.c     **** 
   4:lcd_i2c.c     **** 
   5:lcd_i2c.c     **** #define LCD_ADDR     0x27   // Dirección I2C del módulo LCD
   6:lcd_i2c.c     **** // Bits de control
   7:lcd_i2c.c     **** #define LCD_BACKLIGHT 0x08
   8:lcd_i2c.c     **** #define LCD_ENABLE    0x04
   9:lcd_i2c.c     **** #define LCD_RW        0x02
  10:lcd_i2c.c     **** #define LCD_RS        0x01
  11:lcd_i2c.c     **** 
  12:lcd_i2c.c     **** 
  13:lcd_i2c.c     **** 
  14:lcd_i2c.c     **** 
  15:lcd_i2c.c     **** static void I2C_WriteByte(uint8 address, uint8 data) {
  27              		.loc 1 15 0
  28              		.cfi_startproc
  29              		@ args = 0, pretend = 0, frame = 0
  30              		@ frame_needed = 0, uses_anonymous_args = 0
  31              	.LVL0:
  32 0000 10B5     		push	{r4, lr}
  33              		.cfi_def_cfa_offset 8
  34              		.cfi_offset 4, -8
  35              		.cfi_offset 14, -4
  36 0002 0C46     		mov	r4, r1
  16:lcd_i2c.c     ****     uint8 status = I2C_1_MasterSendStart(address, 0); 
  37              		.loc 1 16 0
  38 0004 0021     		movs	r1, #0
  39              	.LVL1:
  40 0006 FFF7FEFF 		bl	I2C_1_MasterSendStart
  41              	.LVL2:
ARM GAS  C:\Users\Admin\AppData\Local\Temp\ccoixPwk.s 			page 2


  17:lcd_i2c.c     ****     if(status == I2C_1_MSTR_NO_ERROR) {
  42              		.loc 1 17 0
  43 000a 10B9     		cbnz	r0, .L2
  18:lcd_i2c.c     ****         I2C_1_MasterWriteByte(data);
  44              		.loc 1 18 0
  45 000c 2046     		mov	r0, r4
  46              	.LVL3:
  47 000e FFF7FEFF 		bl	I2C_1_MasterWriteByte
  48              	.LVL4:
  49              	.L2:
  19:lcd_i2c.c     ****     }
  20:lcd_i2c.c     ****     I2C_1_MasterSendStop();
  50              		.loc 1 20 0
  51 0012 FFF7FEFF 		bl	I2C_1_MasterSendStop
  52              	.LVL5:
  53 0016 10BD     		pop	{r4, pc}
  54              		.cfi_endproc
  55              	.LFE63:
  56              		.size	I2C_WriteByte, .-I2C_WriteByte
  57              		.section	.text.LCD_WriteNibble,"ax",%progbits
  58              		.align	2
  59              		.thumb
  60              		.thumb_func
  61              		.type	LCD_WriteNibble, %function
  62              	LCD_WriteNibble:
  63              	.LFB64:
  21:lcd_i2c.c     **** }
  22:lcd_i2c.c     **** 
  23:lcd_i2c.c     **** static void LCD_WriteNibble(uint8 nibble, uint8 rs) {
  64              		.loc 1 23 0
  65              		.cfi_startproc
  66              		@ args = 0, pretend = 0, frame = 0
  67              		@ frame_needed = 0, uses_anonymous_args = 0
  68              	.LVL6:
  69 0000 10B5     		push	{r4, lr}
  70              		.cfi_def_cfa_offset 8
  71              		.cfi_offset 4, -8
  72              		.cfi_offset 14, -4
  24:lcd_i2c.c     ****     uint8 data = nibble | LCD_BACKLIGHT | rs; 
  73              		.loc 1 24 0
  74 0002 40EA0104 		orr	r4, r0, r1
  75              	.LVL7:
  25:lcd_i2c.c     ****     
  26:lcd_i2c.c     ****     // Pulso de Enable
  27:lcd_i2c.c     ****     I2C_WriteByte(LCD_ADDR, data | LCD_ENABLE);
  76              		.loc 1 27 0
  77 0006 44F00C01 		orr	r1, r4, #12
  78              	.LVL8:
  79 000a 2720     		movs	r0, #39
  80              	.LVL9:
  81 000c FFF7FEFF 		bl	I2C_WriteByte
  82              	.LVL10:
  28:lcd_i2c.c     ****     CyDelayUs(1);
  83              		.loc 1 28 0
  84 0010 0120     		movs	r0, #1
  85 0012 FFF7FEFF 		bl	CyDelayUs
  86              	.LVL11:
ARM GAS  C:\Users\Admin\AppData\Local\Temp\ccoixPwk.s 			page 3


  29:lcd_i2c.c     ****     I2C_WriteByte(LCD_ADDR, data & ~LCD_ENABLE);
  87              		.loc 1 29 0
  88 0016 24F00401 		bic	r1, r4, #4
  89 001a 41F00801 		orr	r1, r1, #8
  90 001e 2720     		movs	r0, #39
  91 0020 FFF7FEFF 		bl	I2C_WriteByte
  92              	.LVL12:
  30:lcd_i2c.c     ****     CyDelayUs(50);
  93              		.loc 1 30 0
  94 0024 3220     		movs	r0, #50
  95 0026 FFF7FEFF 		bl	CyDelayUs
  96              	.LVL13:
  97 002a 10BD     		pop	{r4, pc}
  98              		.cfi_endproc
  99              	.LFE64:
 100              		.size	LCD_WriteNibble, .-LCD_WriteNibble
 101              		.section	.text.LCD_Send,"ax",%progbits
 102              		.align	2
 103              		.thumb
 104              		.thumb_func
 105              		.type	LCD_Send, %function
 106              	LCD_Send:
 107              	.LFB65:
  31:lcd_i2c.c     **** }
  32:lcd_i2c.c     **** 
  33:lcd_i2c.c     **** static void LCD_Send(uint8 value, uint8 rs) {
 108              		.loc 1 33 0
 109              		.cfi_startproc
 110              		@ args = 0, pretend = 0, frame = 0
 111              		@ frame_needed = 0, uses_anonymous_args = 0
 112              	.LVL14:
 113 0000 38B5     		push	{r3, r4, r5, lr}
 114              		.cfi_def_cfa_offset 16
 115              		.cfi_offset 3, -16
 116              		.cfi_offset 4, -12
 117              		.cfi_offset 5, -8
 118              		.cfi_offset 14, -4
 119 0002 0D46     		mov	r5, r1
 120              	.LVL15:
  34:lcd_i2c.c     ****     uint8 highNibble = value & 0xF0;
  35:lcd_i2c.c     ****     uint8 lowNibble = (value << 4) & 0xF0;
 121              		.loc 1 35 0
 122 0004 0401     		lsls	r4, r0, #4
 123 0006 E4B2     		uxtb	r4, r4
 124              	.LVL16:
  36:lcd_i2c.c     ****     
  37:lcd_i2c.c     ****     LCD_WriteNibble(highNibble, rs);
 125              		.loc 1 37 0
 126 0008 00F0F000 		and	r0, r0, #240
 127              	.LVL17:
 128 000c FFF7FEFF 		bl	LCD_WriteNibble
 129              	.LVL18:
  38:lcd_i2c.c     ****     LCD_WriteNibble(lowNibble, rs);
 130              		.loc 1 38 0
 131 0010 2946     		mov	r1, r5
 132 0012 2046     		mov	r0, r4
 133 0014 FFF7FEFF 		bl	LCD_WriteNibble
ARM GAS  C:\Users\Admin\AppData\Local\Temp\ccoixPwk.s 			page 4


 134              	.LVL19:
 135 0018 38BD     		pop	{r3, r4, r5, pc}
 136              		.cfi_endproc
 137              	.LFE65:
 138              		.size	LCD_Send, .-LCD_Send
 139 001a 00BF     		.section	.text.LCD_Data,"ax",%progbits
 140              		.align	2
 141              		.global	LCD_Data
 142              		.thumb
 143              		.thumb_func
 144              		.type	LCD_Data, %function
 145              	LCD_Data:
 146              	.LFB66:
  39:lcd_i2c.c     **** }
  40:lcd_i2c.c     **** 
  41:lcd_i2c.c     **** void LCD_Data(uint8 data) {
 147              		.loc 1 41 0
 148              		.cfi_startproc
 149              		@ args = 0, pretend = 0, frame = 0
 150              		@ frame_needed = 0, uses_anonymous_args = 0
 151              	.LVL20:
 152 0000 08B5     		push	{r3, lr}
 153              		.cfi_def_cfa_offset 8
 154              		.cfi_offset 3, -8
 155              		.cfi_offset 14, -4
  42:lcd_i2c.c     ****     LCD_Send(data, LCD_RS); 
 156              		.loc 1 42 0
 157 0002 0121     		movs	r1, #1
 158 0004 FFF7FEFF 		bl	LCD_Send
 159              	.LVL21:
 160 0008 08BD     		pop	{r3, pc}
 161              		.cfi_endproc
 162              	.LFE66:
 163              		.size	LCD_Data, .-LCD_Data
 164 000a 00BF     		.section	.text.LCD_Command,"ax",%progbits
 165              		.align	2
 166              		.global	LCD_Command
 167              		.thumb
 168              		.thumb_func
 169              		.type	LCD_Command, %function
 170              	LCD_Command:
 171              	.LFB67:
  43:lcd_i2c.c     **** }
  44:lcd_i2c.c     **** 
  45:lcd_i2c.c     **** void LCD_Command(uint8 cmd) {
 172              		.loc 1 45 0
 173              		.cfi_startproc
 174              		@ args = 0, pretend = 0, frame = 0
 175              		@ frame_needed = 0, uses_anonymous_args = 0
 176              	.LVL22:
 177 0000 08B5     		push	{r3, lr}
 178              		.cfi_def_cfa_offset 8
 179              		.cfi_offset 3, -8
 180              		.cfi_offset 14, -4
  46:lcd_i2c.c     ****     LCD_Send(cmd, 0); 
 181              		.loc 1 46 0
 182 0002 0021     		movs	r1, #0
ARM GAS  C:\Users\Admin\AppData\Local\Temp\ccoixPwk.s 			page 5


 183 0004 FFF7FEFF 		bl	LCD_Send
 184              	.LVL23:
 185 0008 08BD     		pop	{r3, pc}
 186              		.cfi_endproc
 187              	.LFE67:
 188              		.size	LCD_Command, .-LCD_Command
 189 000a 00BF     		.section	.text.LCD_Init,"ax",%progbits
 190              		.align	2
 191              		.global	LCD_Init
 192              		.thumb
 193              		.thumb_func
 194              		.type	LCD_Init, %function
 195              	LCD_Init:
 196              	.LFB68:
  47:lcd_i2c.c     **** }
  48:lcd_i2c.c     **** 
  49:lcd_i2c.c     **** void LCD_Init(void) {
 197              		.loc 1 49 0
 198              		.cfi_startproc
 199              		@ args = 0, pretend = 0, frame = 0
 200              		@ frame_needed = 0, uses_anonymous_args = 0
 201 0000 08B5     		push	{r3, lr}
 202              		.cfi_def_cfa_offset 8
 203              		.cfi_offset 3, -8
 204              		.cfi_offset 14, -4
  50:lcd_i2c.c     ****     CyDelay(50); 
 205              		.loc 1 50 0
 206 0002 3220     		movs	r0, #50
 207 0004 FFF7FEFF 		bl	CyDelay
 208              	.LVL24:
  51:lcd_i2c.c     ****     
  52:lcd_i2c.c     ****     
  53:lcd_i2c.c     ****     LCD_WriteNibble(0x30, 0);
 209              		.loc 1 53 0
 210 0008 0021     		movs	r1, #0
 211 000a 3020     		movs	r0, #48
 212 000c FFF7FEFF 		bl	LCD_WriteNibble
 213              	.LVL25:
  54:lcd_i2c.c     ****     CyDelay(5);
 214              		.loc 1 54 0
 215 0010 0520     		movs	r0, #5
 216 0012 FFF7FEFF 		bl	CyDelay
 217              	.LVL26:
  55:lcd_i2c.c     ****     LCD_WriteNibble(0x30, 0);
 218              		.loc 1 55 0
 219 0016 0021     		movs	r1, #0
 220 0018 3020     		movs	r0, #48
 221 001a FFF7FEFF 		bl	LCD_WriteNibble
 222              	.LVL27:
  56:lcd_i2c.c     ****     CyDelayUs(150);
 223              		.loc 1 56 0
 224 001e 9620     		movs	r0, #150
 225 0020 FFF7FEFF 		bl	CyDelayUs
 226              	.LVL28:
  57:lcd_i2c.c     ****     LCD_WriteNibble(0x30, 0);
 227              		.loc 1 57 0
 228 0024 0021     		movs	r1, #0
ARM GAS  C:\Users\Admin\AppData\Local\Temp\ccoixPwk.s 			page 6


 229 0026 3020     		movs	r0, #48
 230 0028 FFF7FEFF 		bl	LCD_WriteNibble
 231              	.LVL29:
  58:lcd_i2c.c     ****     LCD_WriteNibble(0x20, 0); 
 232              		.loc 1 58 0
 233 002c 0021     		movs	r1, #0
 234 002e 2020     		movs	r0, #32
 235 0030 FFF7FEFF 		bl	LCD_WriteNibble
 236              	.LVL30:
  59:lcd_i2c.c     ****     
  60:lcd_i2c.c     **** 
  61:lcd_i2c.c     ****     LCD_Command(0x28); 
 237              		.loc 1 61 0
 238 0034 2820     		movs	r0, #40
 239 0036 FFF7FEFF 		bl	LCD_Command
 240              	.LVL31:
  62:lcd_i2c.c     ****     LCD_Command(0x0C); 
 241              		.loc 1 62 0
 242 003a 0C20     		movs	r0, #12
 243 003c FFF7FEFF 		bl	LCD_Command
 244              	.LVL32:
  63:lcd_i2c.c     ****     LCD_Command(0x06); 
 245              		.loc 1 63 0
 246 0040 0620     		movs	r0, #6
 247 0042 FFF7FEFF 		bl	LCD_Command
 248              	.LVL33:
  64:lcd_i2c.c     ****     LCD_Command(0x01); 
 249              		.loc 1 64 0
 250 0046 0120     		movs	r0, #1
 251 0048 FFF7FEFF 		bl	LCD_Command
 252              	.LVL34:
  65:lcd_i2c.c     ****     CyDelay(2);
 253              		.loc 1 65 0
 254 004c 0220     		movs	r0, #2
 255 004e FFF7FEFF 		bl	CyDelay
 256              	.LVL35:
 257 0052 08BD     		pop	{r3, pc}
 258              		.cfi_endproc
 259              	.LFE68:
 260              		.size	LCD_Init, .-LCD_Init
 261              		.section	.text.LCD_SetCursor,"ax",%progbits
 262              		.align	2
 263              		.global	LCD_SetCursor
 264              		.thumb
 265              		.thumb_func
 266              		.type	LCD_SetCursor, %function
 267              	LCD_SetCursor:
 268              	.LFB69:
  66:lcd_i2c.c     **** }
  67:lcd_i2c.c     **** 
  68:lcd_i2c.c     **** void LCD_SetCursor(uint8 row, uint8 col) {
 269              		.loc 1 68 0
 270              		.cfi_startproc
 271              		@ args = 0, pretend = 0, frame = 8
 272              		@ frame_needed = 0, uses_anonymous_args = 0
 273              	.LVL36:
 274 0000 00B5     		push	{lr}
ARM GAS  C:\Users\Admin\AppData\Local\Temp\ccoixPwk.s 			page 7


 275              		.cfi_def_cfa_offset 4
 276              		.cfi_offset 14, -4
 277 0002 83B0     		sub	sp, sp, #12
 278              		.cfi_def_cfa_offset 16
 279 0004 0346     		mov	r3, r0
  69:lcd_i2c.c     ****     uint8 row_offsets[] = { 0x00, 0x40, 0x14, 0x54 };
 280              		.loc 1 69 0
 281 0006 084A     		ldr	r2, .L16
 282 0008 1068     		ldr	r0, [r2]	@ unaligned
 283              	.LVL37:
 284 000a 0190     		str	r0, [sp, #4]	@ unaligned
  70:lcd_i2c.c     ****     LCD_Command(0x80 | (col + row_offsets[row]));
 285              		.loc 1 70 0
 286 000c 02AA     		add	r2, sp, #8
 287 000e 1344     		add	r3, r3, r2
 288 0010 13F8040C 		ldrb	r0, [r3, #-4]	@ zero_extendqisi2
 289 0014 0144     		add	r1, r1, r0
 290              	.LVL38:
 291 0016 61F07F00 		orn	r0, r1, #127
 292 001a C0B2     		uxtb	r0, r0
 293 001c FFF7FEFF 		bl	LCD_Command
 294              	.LVL39:
  71:lcd_i2c.c     **** }
 295              		.loc 1 71 0
 296 0020 03B0     		add	sp, sp, #12
 297              		.cfi_def_cfa_offset 4
 298              		@ sp needed
 299 0022 5DF804FB 		ldr	pc, [sp], #4
 300              	.L17:
 301 0026 00BF     		.align	2
 302              	.L16:
 303 0028 00000000 		.word	.LANCHOR0
 304              		.cfi_endproc
 305              	.LFE69:
 306              		.size	LCD_SetCursor, .-LCD_SetCursor
 307              		.section	.text.LCD_Print,"ax",%progbits
 308              		.align	2
 309              		.global	LCD_Print
 310              		.thumb
 311              		.thumb_func
 312              		.type	LCD_Print, %function
 313              	LCD_Print:
 314              	.LFB70:
  72:lcd_i2c.c     **** 
  73:lcd_i2c.c     **** void LCD_Print(char *str) {
 315              		.loc 1 73 0
 316              		.cfi_startproc
 317              		@ args = 0, pretend = 0, frame = 0
 318              		@ frame_needed = 0, uses_anonymous_args = 0
 319              	.LVL40:
 320 0000 10B5     		push	{r4, lr}
 321              		.cfi_def_cfa_offset 8
 322              		.cfi_offset 4, -8
 323              		.cfi_offset 14, -4
 324 0002 0446     		mov	r4, r0
  74:lcd_i2c.c     ****     while (*str) {
 325              		.loc 1 74 0
ARM GAS  C:\Users\Admin\AppData\Local\Temp\ccoixPwk.s 			page 8


 326 0004 02E0     		b	.L19
 327              	.LVL41:
 328              	.L20:
  75:lcd_i2c.c     ****         LCD_Data(*str++);
 329              		.loc 1 75 0
 330 0006 0134     		adds	r4, r4, #1
 331              	.LVL42:
 332 0008 FFF7FEFF 		bl	LCD_Data
 333              	.LVL43:
 334              	.L19:
  74:lcd_i2c.c     ****     while (*str) {
 335              		.loc 1 74 0
 336 000c 2078     		ldrb	r0, [r4]	@ zero_extendqisi2
 337 000e 0028     		cmp	r0, #0
 338 0010 F9D1     		bne	.L20
  76:lcd_i2c.c     ****     }
  77:lcd_i2c.c     **** }
 339              		.loc 1 77 0
 340 0012 10BD     		pop	{r4, pc}
 341              		.cfi_endproc
 342              	.LFE70:
 343              		.size	LCD_Print, .-LCD_Print
 344              		.section	.text.LCD_Clear,"ax",%progbits
 345              		.align	2
 346              		.global	LCD_Clear
 347              		.thumb
 348              		.thumb_func
 349              		.type	LCD_Clear, %function
 350              	LCD_Clear:
 351              	.LFB71:
  78:lcd_i2c.c     **** 
  79:lcd_i2c.c     **** void LCD_Clear(void) {
 352              		.loc 1 79 0
 353              		.cfi_startproc
 354              		@ args = 0, pretend = 0, frame = 0
 355              		@ frame_needed = 0, uses_anonymous_args = 0
 356 0000 08B5     		push	{r3, lr}
 357              		.cfi_def_cfa_offset 8
 358              		.cfi_offset 3, -8
 359              		.cfi_offset 14, -4
  80:lcd_i2c.c     ****     LCD_Command(0x01); 
 360              		.loc 1 80 0
 361 0002 0120     		movs	r0, #1
 362 0004 FFF7FEFF 		bl	LCD_Command
 363              	.LVL44:
  81:lcd_i2c.c     ****     CyDelay(2);        
 364              		.loc 1 81 0
 365 0008 0220     		movs	r0, #2
 366 000a FFF7FEFF 		bl	CyDelay
 367              	.LVL45:
 368 000e 08BD     		pop	{r3, pc}
 369              		.cfi_endproc
 370              	.LFE71:
 371              		.size	LCD_Clear, .-LCD_Clear
 372              		.section	.rodata
 373              		.align	2
 374              		.set	.LANCHOR0,. + 0
ARM GAS  C:\Users\Admin\AppData\Local\Temp\ccoixPwk.s 			page 9


 375              	.LC0:
 376 0000 00       		.byte	0
 377 0001 40       		.byte	64
 378 0002 14       		.byte	20
 379 0003 54       		.byte	84
 380              		.text
 381              	.Letext0:
 382              		.file 2 "e:\\cypress\\psoc creator\\4.4\\psoc creator\\import\\gnu\\arm\\5.4.1\\arm-none-eabi\\inc
 383              		.file 3 "e:\\cypress\\psoc creator\\4.4\\psoc creator\\import\\gnu\\arm\\5.4.1\\arm-none-eabi\\inc
 384              		.file 4 "Generated_Source\\PSoC5/cytypes.h"
 385              		.file 5 "Generated_Source\\PSoC5/I2C_1.h"
 386              		.file 6 "Generated_Source\\PSoC5/CyLib.h"
 387              		.file 7 "Generated_Source\\PSoC5/core_cm3.h"