ARM GAS  C:\Users\Admin\AppData\Local\Temp\ccG2yjGd.s 			page 1


   1              		.syntax unified
   2              		.cpu cortex-m3
   3              		.fpu softvfp
   4              		.eabi_attribute 20, 1
   5              		.eabi_attribute 21, 1
   6              		.eabi_attribute 23, 3
   7              		.eabi_attribute 24, 1
   8              		.eabi_attribute 25, 1
   9              		.eabi_attribute 26, 1
  10              		.eabi_attribute 30, 1
  11              		.eabi_attribute 34, 1
  12              		.eabi_attribute 18, 4
  13              		.thumb
  14              		.syntax unified
  15              		.file	"main.c"
  16              		.text
  17              	.Ltext0:
  18              		.cfi_sections	.debug_frame
  19              		.syntax unified
  20              		.global _printf_float
  21              		.global	__aeabi_fcmpgt
  22              		.global	__aeabi_f2d
  23              		.global	__aeabi_fsub
  24              		.global	__aeabi_fcmplt
  25              		.thumb
  26              		.syntax unified
  27              		.section	.text.Actualizar_LCD_Resultado,"ax",%progbits
  28              		.align	2
  29              		.global	Actualizar_LCD_Resultado
  30              		.thumb
  31              		.thumb_func
  32              		.type	Actualizar_LCD_Resultado, %function
  33              	Actualizar_LCD_Resultado:
  34              	.LFB65:
  35              		.file 1 "main.c"
   1:main.c        **** #include "project.h"
   2:main.c        **** #include "configuracion.h"
   3:main.c        **** #include "coeficientes.h"
   4:main.c        **** #include "lcd_i2c.h"         
   5:main.c        **** #include "procesamiento.h"
   6:main.c        **** #include "gestion_hardware.h"
   7:main.c        **** #include <stdio.h> 
   8:main.c        **** #include <stdlib.h>
   9:main.c        **** 
  10:main.c        **** // Solución para printf de floats en GCC
  11:main.c        **** #if defined (__GNUC__)
  12:main.c        ****     asm(".global _printf_float");
  13:main.c        **** #endif
  14:main.c        **** 
  15:main.c        **** // --- Buffers de Procesamiento ---
  16:main.c        **** // Nota: 'N' debe estar definido en configuracion.h (ej. 1024 o 2048)
  17:main.c        **** float y_entrada[N] = {0};             
  18:main.c        **** 
  19:main.c        **** // --- Variables Lógica Afinador ---
  20:main.c        **** int cuerda_actual = 0; // 0 = Ninguna cuerda seleccionada (Idle)
  21:main.c        **** float freq_objetivo = 0.0f;
  22:main.c        **** float freq_calculada = 0.0f;
ARM GAS  C:\Users\Admin\AppData\Local\Temp\ccG2yjGd.s 			page 2


  23:main.c        **** char buffer_LCD[20];
  24:main.c        **** 
  25:main.c        **** 
  26:main.c        **** // Función auxiliar para actualizar pantalla
  27:main.c        **** void Actualizar_LCD_Resultado(float freq_medida, float freq_target, int num_cuerda);
  28:main.c        **** 
  29:main.c        **** int main(void)
  30:main.c        **** {
  31:main.c        ****     // 1. Inicialización de Periféricos
  32:main.c        ****     Hardware_Iniciar(); // Inicia Filtro, DMA e Interrupciones HW
  33:main.c        ****     
  34:main.c        ****     // --- Eliminado UART Start ---
  35:main.c        ****     
  36:main.c        ****     I2C_1_Start();
  37:main.c        ****     LCD_Init();
  38:main.c        ****     
  39:main.c        ****     // Cadena de acondicionamiento analógico
  40:main.c        ****     OpAmp_Vref_Start();
  41:main.c        ****     PGA_1_Start();
  42:main.c        ****     PGA_1_SetGain(PGA_1_GAIN_24); // Ajustar ganancia según el nivel de tu guitarra
  43:main.c        ****     OpAmp_Filtro1_Start();
  44:main.c        ****     OpAmp_Filtro2_Start();
  45:main.c        ****     OpAmp_Acoplador_Start();
  46:main.c        ****     
  47:main.c        ****     ADC_DelSig_1_Start();
  48:main.c        ****     ADC_DelSig_1_StartConvert(); // El ADC comienza a convertir continuamente
  49:main.c        ****     
  50:main.c        ****     CyGlobalIntEnable;
  51:main.c        **** 
  52:main.c        ****     // Mensaje Bienvenida
  53:main.c        ****     LCD_SetCursor(0, 0); 
  54:main.c        ****     LCD_Print("Afinador");
  55:main.c        ****     LCD_SetCursor(1, 0); 
  56:main.c        ****     LCD_Print("Listo...");
  57:main.c        ****     CyDelay(1000);
  58:main.c        ****     LCD_Clear();
  59:main.c        **** 
  60:main.c        ****     // Variables botones
  61:main.c        ****     uint8_t sw_estado_ant = 255;
  62:main.c        ****     uint8_t sw_lectura;
  63:main.c        ****     
  64:main.c        ****     int i; // Índice para bucles
  65:main.c        **** 
  66:main.c        ****     for(;;)
  67:main.c        ****     {
  68:main.c        ****         /* -----------------------------------------------------------
  69:main.c        ****            1. Lectura de Botones (Selección de Cuerda)
  70:main.c        ****            ----------------------------------------------------------- */
  71:main.c        ****         sw_lectura = (BIT1_Read() << 2) | (BIT2_Read() << 1) | BIT3_Read(); 
  72:main.c        **** 
  73:main.c        ****         // Si hay cambio en los botones
  74:main.c        ****         if (sw_lectura != sw_estado_ant)
  75:main.c        ****         {
  76:main.c        ****             CyDelay(50); // Debounce simple
  77:main.c        ****             
  78:main.c        ****             // Selección de Cuerda y Carga de Coeficientes del Filtro
  79:main.c        ****             switch (sw_lectura)
ARM GAS  C:\Users\Admin\AppData\Local\Temp\ccG2yjGd.s 			page 3


  80:main.c        ****             {
  81:main.c        ****                 case 0b001: // Cuerda 1 (Mi grave / E2)
  82:main.c        ****                     Hardware_Cargar_Coeficientes(COEFFS_82_4, sizeof(COEFFS_82_4));
  83:main.c        ****                     cuerda_actual = 1; freq_objetivo = 82.4f;
  84:main.c        ****                     break;
  85:main.c        ****                 case 0b010: // Cuerda 2 (La / A2)
  86:main.c        ****                     Hardware_Cargar_Coeficientes(COEFFS_110, sizeof(COEFFS_110));
  87:main.c        ****                     cuerda_actual = 2; freq_objetivo = 110.0f;
  88:main.c        ****                     break;
  89:main.c        ****                 case 0b011: // Cuerda 3 (Re / D3)
  90:main.c        ****                     Hardware_Cargar_Coeficientes(COEFFS_146_83, sizeof(COEFFS_146_83));
  91:main.c        ****                     cuerda_actual = 3; freq_objetivo = 146.8f;
  92:main.c        ****                     break;
  93:main.c        ****                 case 0b100: // Cuerda 4 (Sol / G3)
  94:main.c        ****                     Hardware_Cargar_Coeficientes(COEFFS_196, sizeof(COEFFS_196));
  95:main.c        ****                     cuerda_actual = 4; freq_objetivo = 196.0f;
  96:main.c        ****                     break;
  97:main.c        ****                 case 0b101: // Cuerda 5 (Si / B3)
  98:main.c        ****                     Hardware_Cargar_Coeficientes(COEFFS_246_94, sizeof(COEFFS_246_94));
  99:main.c        ****                     cuerda_actual = 5; freq_objetivo = 246.9f;
 100:main.c        ****                     break;
 101:main.c        ****                 case 0b110: // Cuerda 6 (Mi agudo / E4)
 102:main.c        ****                     Hardware_Cargar_Coeficientes(COEFFS_330, sizeof(COEFFS_330));
 103:main.c        ****                     cuerda_actual = 6; freq_objetivo = 329.6f;
 104:main.c        ****                     break;
 105:main.c        ****                 default: 
 106:main.c        ****                     // Si se sueltan los botones o combinación inválida, mantenemos la última
 107:main.c        ****                     break;
 108:main.c        ****             }
 109:main.c        ****             
 110:main.c        ****             if(cuerda_actual > 0) {
 111:main.c        ****                 LCD_Clear();
 112:main.c        ****                 LCD_SetCursor(0,0);
 113:main.c        ****                 sprintf(buffer_LCD, "Cuerda %d...", cuerda_actual);
 114:main.c        ****                 LCD_Print(buffer_LCD);
 115:main.c        ****                 
 116:main.c        ****                 // Reiniciamos el proceso de hardware por si estaba a medias
 117:main.c        ****                 Hardware_Reiniciar_Proceso();
 118:main.c        ****             }
 119:main.c        ****             sw_estado_ant = sw_lectura;
 120:main.c        ****         }
 121:main.c        ****         
 122:main.c        ****         /* -----------------------------------------------------------
 123:main.c        ****            2. Lógica de Adquisición y Procesamiento
 124:main.c        ****            Solo se ejecuta si hay una cuerda seleccionada
 125:main.c        ****            ----------------------------------------------------------- */
 126:main.c        ****         if (cuerda_actual > 0)
 127:main.c        ****         {
 128:main.c        ****             // A. ADQUISICIÓN DE DATOS (Bloqueante por N muestras)
 129:main.c        ****             for(i = 0; i < N; i++)
 130:main.c        ****             {
 131:main.c        ****                 
 132:main.c        ****                 
 133:main.c        ****                 
 134:main.c        ****                 
 135:main.c        ****                 ADC_DelSig_1_IsEndConversion(ADC_DelSig_1_WAIT_FOR_RESULT);
 136:main.c        ****     
ARM GAS  C:\Users\Admin\AppData\Local\Temp\ccG2yjGd.s 			page 4


 137:main.c        ****                 // Leer resultado (int16 o uint16 dependiendo de config)
 138:main.c        ****                 uint16 lectura_adc = ADC_DelSig_1_GetResult16();
 139:main.c        ****                 
 140:main.c        ****                 
 141:main.c        ****                 // LOGICA DE FILTRADO (ZONA MUERTA)
 142:main.c        ****                 // Calculamos la diferencia absoluta respecto al centro (2.5V)
 143:main.c        ****                 
 144:main.c        ****                 uint16 diferencia = abs(lectura_adc - OFFSET_DC);
 145:main.c        ****                 
 146:main.c        ****  
 147:main.c        ****                 
 148:main.c        ****                 
 149:main.c        ****                 if(diferencia < UMBRAL_RUIDO)
 150:main.c        ****                 {
 151:main.c        ****                     // Si la amplitud es menor a 0.0125V, forzamos al centro.
 152:main.c        ****                     // Así eliminamos la señal pequeña y dejamos una linea plana limpia.
 153:main.c        ****                     lectura_adc = OFFSET_DC;
 154:main.c        ****                 }
 155:main.c        ****                 // Si es mayor, dejamos pasar el valor original (lectura_adc se mantiene)
 156:main.c        **** 
 157:main.c        ****                 // Guardar en el buffer casteado a float
 158:main.c        ****                 y_entrada[i] = (int)lectura_adc;
 159:main.c        ****                 
 160:main.c        ****                
 161:main.c        ****    
 162:main.c        **** 
 163:main.c        ****             }
 164:main.c        **** 
 165:main.c        ****             // B. PRE-PROCESAMIENTO (Float -> Q31 para el DFB/Filtro HW)
 166:main.c        ****             // Usamos el buffer global y_entrada_q32 definido en hardware.c/h
 167:main.c        ****             convertToQ32(y_entrada, y_entrada_q32, N);
 168:main.c        ****             
 169:main.c        ****             // C. FILTRADO POR HARDWARE
 170:main.c        ****             dma_transfer_complete = 0; // Resetear bandera
 171:main.c        ****             Hardware_Configurar_Disparar_DMA();
 172:main.c        ****             
 173:main.c        ****             // Esperar a que el DMA/Filtro termine (bandera activada en ISR del DMA)
 174:main.c        ****             while(dma_transfer_complete == 0)
 175:main.c        ****             {
 176:main.c        ****                 // Podríamos chequear botones aquí si quisiéramos salir rápido
 177:main.c        ****             }
 178:main.c        ****             
 179:main.c        ****             // D. CÁLCULO DE FRECUENCIA
 180:main.c        ****             // Usamos buffer global de salida y_salida_pulsos_hw
 181:main.c        ****             freq_calculada = Calcular_Frecuencia_Regresion(y_salida_pulsos_hw, N);
 182:main.c        ****             
 183:main.c        ****             // E. MOSTRAR RESULTADOS
 184:main.c        ****             Actualizar_LCD_Resultado(freq_calculada, freq_objetivo, cuerda_actual);
 185:main.c        ****             
 186:main.c        ****             // Pequeña pausa visual para no parpadear la pantalla demasiado rápido
 187:main.c        ****             // CyDelay(50); 
 188:main.c        ****         }
 189:main.c        ****     }
 190:main.c        **** }
 191:main.c        **** 
 192:main.c        **** // Función Lógica LCD
 193:main.c        **** void Actualizar_LCD_Resultado(float freq_medida, float freq_target, int num_cuerda) {
ARM GAS  C:\Users\Admin\AppData\Local\Temp\ccG2yjGd.s 			page 5


  36              		.loc 1 193 0
  37              		.cfi_startproc
  38              		@ args = 0, pretend = 0, frame = 0
  39              		@ frame_needed = 0, uses_anonymous_args = 0
  40              	.LVL0:
  41 0000 F0B5     		push	{r4, r5, r6, r7, lr}
  42              		.cfi_def_cfa_offset 20
  43              		.cfi_offset 4, -20
  44              		.cfi_offset 5, -16
  45              		.cfi_offset 6, -12
  46              		.cfi_offset 7, -8
  47              		.cfi_offset 14, -4
  48 0002 83B0     		sub	sp, sp, #12
  49              		.cfi_def_cfa_offset 32
  50 0004 0446     		mov	r4, r0
  51 0006 0E46     		mov	r6, r1
  52 0008 1546     		mov	r5, r2
 194:main.c        ****     // Solo borramos parte de la pantalla o usamos lógica inteligente para evitar parpadeo
 195:main.c        ****     // Pero por simplicidad, limpiamos si cambia drásticamente o sobrescribimos.
 196:main.c        ****     
 197:main.c        ****     LCD_SetCursor(0, 0);
  53              		.loc 1 197 0
  54 000a 0021     		movs	r1, #0
  55              	.LVL1:
  56 000c 0846     		mov	r0, r1
  57              	.LVL2:
  58 000e FFF7FEFF 		bl	LCD_SetCursor
  59              	.LVL3:
 198:main.c        ****     if (freq_medida > 10.0f) {
  60              		.loc 1 198 0
  61 0012 2349     		ldr	r1, .L16
  62 0014 2046     		mov	r0, r4
  63 0016 FFF7FEFF 		bl	__aeabi_fcmpgt
  64              	.LVL4:
  65 001a 70B3     		cbz	r0, .L12
  66              	.LBB2:
 199:main.c        ****         sprintf(buffer_LCD, "C%d: %.1f Hz   ", num_cuerda, freq_medida); // Mostrar entero para lec
  67              		.loc 1 199 0
  68 001c 214F     		ldr	r7, .L16+4
  69 001e 2046     		mov	r0, r4
  70 0020 FFF7FEFF 		bl	__aeabi_f2d
  71              	.LVL5:
  72 0024 CDE90001 		strd	r0, [sp]
  73 0028 2A46     		mov	r2, r5
  74 002a 1F49     		ldr	r1, .L16+8
  75 002c 3846     		mov	r0, r7
  76 002e FFF7FEFF 		bl	sprintf
  77              	.LVL6:
 200:main.c        ****         LCD_Print(buffer_LCD);
  78              		.loc 1 200 0
  79 0032 3846     		mov	r0, r7
  80 0034 FFF7FEFF 		bl	LCD_Print
  81              	.LVL7:
 201:main.c        **** 
 202:main.c        ****         LCD_SetCursor(1, 0);
  82              		.loc 1 202 0
  83 0038 0021     		movs	r1, #0
ARM GAS  C:\Users\Admin\AppData\Local\Temp\ccG2yjGd.s 			page 6


  84 003a 0120     		movs	r0, #1
  85 003c FFF7FEFF 		bl	LCD_SetCursor
  86              	.LVL8:
 203:main.c        ****         float diferencia = freq_medida - freq_target;
  87              		.loc 1 203 0
  88 0040 3146     		mov	r1, r6
  89 0042 2046     		mov	r0, r4
  90 0044 FFF7FEFF 		bl	__aeabi_fsub
  91              	.LVL9:
  92 0048 0446     		mov	r4, r0
  93              	.LVL10:
 204:main.c        **** 
 205:main.c        ****        
 206:main.c        ****         
 207:main.c        **** 
 208:main.c        ****         if (diferencia < -TOLERANCIA) {
  94              		.loc 1 208 0
  95 004a 1849     		ldr	r1, .L16+12
  96 004c FFF7FEFF 		bl	__aeabi_fcmplt
  97              	.LVL11:
  98 0050 18B1     		cbz	r0, .L13
 209:main.c        ****             LCD_Print(">> TENSAR (+)   "); 
  99              		.loc 1 209 0
 100 0052 1748     		ldr	r0, .L16+16
 101 0054 FFF7FEFF 		bl	LCD_Print
 102              	.LVL12:
 103 0058 1FE0     		b	.L1
 104              	.L13:
 210:main.c        ****         } else if (diferencia > TOLERANCIA) {
 105              		.loc 1 210 0
 106 005a 1649     		ldr	r1, .L16+20
 107 005c 2046     		mov	r0, r4
 108 005e FFF7FEFF 		bl	__aeabi_fcmpgt
 109              	.LVL13:
 110 0062 18B1     		cbz	r0, .L14
 211:main.c        ****             LCD_Print("<< AFLOJAR (-)  ");
 111              		.loc 1 211 0
 112 0064 1448     		ldr	r0, .L16+24
 113 0066 FFF7FEFF 		bl	LCD_Print
 114              	.LVL14:
 115 006a 16E0     		b	.L1
 116              	.L14:
 212:main.c        ****         } else {
 213:main.c        ****             LCD_Print("** AFINADO **   ");
 117              		.loc 1 213 0
 118 006c 1348     		ldr	r0, .L16+28
 119 006e FFF7FEFF 		bl	LCD_Print
 120              	.LVL15:
 214:main.c        ****             CyDelay(50);
 121              		.loc 1 214 0
 122 0072 3220     		movs	r0, #50
 123 0074 FFF7FEFF 		bl	CyDelay
 124              	.LVL16:
 125 0078 0FE0     		b	.L1
 126              	.LVL17:
 127              	.L12:
 128              	.LBE2:
ARM GAS  C:\Users\Admin\AppData\Local\Temp\ccG2yjGd.s 			page 7


 215:main.c        ****         }
 216:main.c        **** 
 217:main.c        ****     } else {
 218:main.c        ****         // Si no detecta frecuencia clara (ruido o silencio)
 219:main.c        ****         sprintf(buffer_LCD, "Cuerda %d (---)", num_cuerda);
 129              		.loc 1 219 0
 130 007a 0A4C     		ldr	r4, .L16+4
 131              	.LVL18:
 132 007c 2A46     		mov	r2, r5
 133 007e 1049     		ldr	r1, .L16+32
 134 0080 2046     		mov	r0, r4
 135 0082 FFF7FEFF 		bl	sprintf
 136              	.LVL19:
 220:main.c        ****         LCD_Print(buffer_LCD);
 137              		.loc 1 220 0
 138 0086 2046     		mov	r0, r4
 139 0088 FFF7FEFF 		bl	LCD_Print
 140              	.LVL20:
 221:main.c        ****         LCD_SetCursor(1, 0);
 141              		.loc 1 221 0
 142 008c 0021     		movs	r1, #0
 143 008e 0120     		movs	r0, #1
 144 0090 FFF7FEFF 		bl	LCD_SetCursor
 145              	.LVL21:
 222:main.c        ****         LCD_Print("Escuchando...   ");
 146              		.loc 1 222 0
 147 0094 0B48     		ldr	r0, .L16+36
 148 0096 FFF7FEFF 		bl	LCD_Print
 149              	.LVL22:
 150              	.L1:
 223:main.c        ****     }
 224:main.c        **** }...
 151              		.loc 1 224 0
 152 009a 03B0     		add	sp, sp, #12
 153              		.cfi_def_cfa_offset 20
 154              		@ sp needed
 155 009c F0BD     		pop	{r4, r5, r6, r7, pc}
 156              	.LVL23:
 157              	.L17:
 158 009e 00BF     		.align	2
 159              	.L16:
 160 00a0 00002041 		.word	1092616192
 161 00a4 00000000 		.word	buffer_LCD
 162 00a8 00000000 		.word	.LC0
 163 00ac 9A9999BE 		.word	-1097229926
 164 00b0 10000000 		.word	.LC1
 165 00b4 9A99993E 		.word	1050253722
 166 00b8 24000000 		.word	.LC2
 167 00bc 38000000 		.word	.LC3
 168 00c0 4C000000 		.word	.LC4
 169 00c4 5C000000 		.word	.LC5
 170              		.cfi_endproc
 171              	.LFE65:
 172              		.size	Actualizar_LCD_Resultado, .-Actualizar_LCD_Resultado
 173              		.global	__aeabi_i2f
 174              		.section	.text.main,"ax",%progbits
 175              		.align	2
ARM GAS  C:\Users\Admin\AppData\Local\Temp\ccG2yjGd.s 			page 8


 176              		.global	main
 177              		.thumb
 178              		.thumb_func
 179              		.type	main, %function
 180              	main:
 181              	.LFB64:
  30:main.c        **** {
 182              		.loc 1 30 0
 183              		.cfi_startproc
 184              		@ args = 0, pretend = 0, frame = 0
 185              		@ frame_needed = 0, uses_anonymous_args = 0
 186 0000 70B5     		push	{r4, r5, r6, lr}
 187              		.cfi_def_cfa_offset 16
 188              		.cfi_offset 4, -16
 189              		.cfi_offset 5, -12
 190              		.cfi_offset 6, -8
 191              		.cfi_offset 14, -4
  32:main.c        ****     Hardware_Iniciar(); // Inicia Filtro, DMA e Interrupciones HW
 192              		.loc 1 32 0
 193 0002 FFF7FEFF 		bl	Hardware_Iniciar
 194              	.LVL24:
  36:main.c        ****     I2C_1_Start();
 195              		.loc 1 36 0
 196 0006 FFF7FEFF 		bl	I2C_1_Start
 197              	.LVL25:
  37:main.c        ****     LCD_Init();
 198              		.loc 1 37 0
 199 000a FFF7FEFF 		bl	LCD_Init
 200              	.LVL26:
  40:main.c        ****     OpAmp_Vref_Start();
 201              		.loc 1 40 0
 202 000e FFF7FEFF 		bl	OpAmp_Vref_Start
 203              	.LVL27:
  41:main.c        ****     PGA_1_Start();
 204              		.loc 1 41 0
 205 0012 FFF7FEFF 		bl	PGA_1_Start
 206              	.LVL28:
  42:main.c        ****     PGA_1_SetGain(PGA_1_GAIN_24); // Ajustar ganancia según el nivel de tu guitarra
 207              		.loc 1 42 0
 208 0016 0520     		movs	r0, #5
 209 0018 FFF7FEFF 		bl	PGA_1_SetGain
 210              	.LVL29:
  43:main.c        ****     OpAmp_Filtro1_Start();
 211              		.loc 1 43 0
 212 001c FFF7FEFF 		bl	OpAmp_Filtro1_Start
 213              	.LVL30:
  44:main.c        ****     OpAmp_Filtro2_Start();
 214              		.loc 1 44 0
 215 0020 FFF7FEFF 		bl	OpAmp_Filtro2_Start
 216              	.LVL31:
  45:main.c        ****     OpAmp_Acoplador_Start();
 217              		.loc 1 45 0
 218 0024 FFF7FEFF 		bl	OpAmp_Acoplador_Start
 219              	.LVL32:
  47:main.c        ****     ADC_DelSig_1_Start();
 220              		.loc 1 47 0
 221 0028 FFF7FEFF 		bl	ADC_DelSig_1_Start
ARM GAS  C:\Users\Admin\AppData\Local\Temp\ccG2yjGd.s 			page 9


 222              	.LVL33:
  48:main.c        ****     ADC_DelSig_1_StartConvert(); // El ADC comienza a convertir continuamente
 223              		.loc 1 48 0
 224 002c FFF7FEFF 		bl	ADC_DelSig_1_StartConvert
 225              	.LVL34:
  50:main.c        ****     CyGlobalIntEnable;
 226              		.loc 1 50 0
 227              		.syntax unified
 228              	@ 50 "main.c" 1
 229 0030 62B6     		CPSIE   i
 230              	@ 0 "" 2
  53:main.c        ****     LCD_SetCursor(0, 0); 
 231              		.loc 1 53 0
 232              		.thumb
 233              		.syntax unified
 234 0032 0021     		movs	r1, #0
 235 0034 0846     		mov	r0, r1
 236 0036 FFF7FEFF 		bl	LCD_SetCursor
 237              	.LVL35:
  54:main.c        ****     LCD_Print("Afinador");
 238              		.loc 1 54 0
 239 003a 5D48     		ldr	r0, .L36
 240 003c FFF7FEFF 		bl	LCD_Print
 241              	.LVL36:
  55:main.c        ****     LCD_SetCursor(1, 0); 
 242              		.loc 1 55 0
 243 0040 0021     		movs	r1, #0
 244 0042 0120     		movs	r0, #1
 245 0044 FFF7FEFF 		bl	LCD_SetCursor
 246              	.LVL37:
  56:main.c        ****     LCD_Print("Listo...");
 247              		.loc 1 56 0
 248 0048 5A48     		ldr	r0, .L36+4
 249 004a FFF7FEFF 		bl	LCD_Print
 250              	.LVL38:
  57:main.c        ****     CyDelay(1000);
 251              		.loc 1 57 0
 252 004e 4FF47A70 		mov	r0, #1000
 253 0052 FFF7FEFF 		bl	CyDelay
 254              	.LVL39:
  58:main.c        ****     LCD_Clear();
 255              		.loc 1 58 0
 256 0056 FFF7FEFF 		bl	LCD_Clear
 257              	.LVL40:
  61:main.c        ****     uint8_t sw_estado_ant = 255;
 258              		.loc 1 61 0
 259 005a FF26     		movs	r6, #255
 260              	.LVL41:
 261              	.L19:
  71:main.c        ****         sw_lectura = (BIT1_Read() << 2) | (BIT2_Read() << 1) | BIT3_Read(); 
 262              		.loc 1 71 0
 263 005c FFF7FEFF 		bl	BIT1_Read
 264              	.LVL42:
 265 0060 8400     		lsls	r4, r0, #2
 266 0062 FFF7FEFF 		bl	BIT2_Read
 267              	.LVL43:
 268 0066 44EA4000 		orr	r0, r4, r0, lsl #1
ARM GAS  C:\Users\Admin\AppData\Local\Temp\ccG2yjGd.s 			page 10


 269 006a 44B2     		sxtb	r4, r0
 270 006c FFF7FEFF 		bl	BIT3_Read
 271              	.LVL44:
 272 0070 2043     		orrs	r0, r0, r4
 273 0072 44B2     		sxtb	r4, r0
 274 0074 E5B2     		uxtb	r5, r4
 275              	.LVL45:
  74:main.c        ****         if (sw_lectura != sw_estado_ant)
 276              		.loc 1 74 0
 277 0076 AE42     		cmp	r6, r5
 278 0078 64D0     		beq	.L20
  76:main.c        ****             CyDelay(50); // Debounce simple
 279              		.loc 1 76 0
 280 007a 3220     		movs	r0, #50
 281 007c FFF7FEFF 		bl	CyDelay
 282              	.LVL46:
  79:main.c        ****             switch (sw_lectura)
 283              		.loc 1 79 0
 284 0080 013C     		subs	r4, r4, #1
 285 0082 052C     		cmp	r4, #5
 286 0084 45D8     		bhi	.L21
 287 0086 DFE804F0 		tbb	[pc, r4]
 288              	.L23:
 289 008a 03       		.byte	(.L22-.L23)/2
 290 008b 0E       		.byte	(.L24-.L23)/2
 291 008c 19       		.byte	(.L25-.L23)/2
 292 008d 24       		.byte	(.L26-.L23)/2
 293 008e 2F       		.byte	(.L27-.L23)/2
 294 008f 3A       		.byte	(.L28-.L23)/2
 295              		.p2align 1
 296              	.L22:
  82:main.c        ****                     Hardware_Cargar_Coeficientes(COEFFS_82_4, sizeof(COEFFS_82_4));
 297              		.loc 1 82 0
 298 0090 4FF4A271 		mov	r1, #324
 299 0094 4848     		ldr	r0, .L36+8
 300 0096 FFF7FEFF 		bl	Hardware_Cargar_Coeficientes
 301              	.LVL47:
  83:main.c        ****                     cuerda_actual = 1; freq_objetivo = 82.4f;
 302              		.loc 1 83 0
 303 009a 484B     		ldr	r3, .L36+12
 304 009c 0122     		movs	r2, #1
 305 009e 1A60     		str	r2, [r3]
 306 00a0 474A     		ldr	r2, .L36+16
 307 00a2 5A60     		str	r2, [r3, #4]	@ float
  84:main.c        ****                     break;
 308              		.loc 1 84 0
 309 00a4 35E0     		b	.L21
 310              	.L24:
  86:main.c        ****                     Hardware_Cargar_Coeficientes(COEFFS_110, sizeof(COEFFS_110));
 311              		.loc 1 86 0
 312 00a6 4FF4A271 		mov	r1, #324
 313 00aa 4648     		ldr	r0, .L36+20
 314 00ac FFF7FEFF 		bl	Hardware_Cargar_Coeficientes
 315              	.LVL48:
  87:main.c        ****                     cuerda_actual = 2; freq_objetivo = 110.0f;
 316              		.loc 1 87 0
 317 00b0 424B     		ldr	r3, .L36+12
ARM GAS  C:\Users\Admin\AppData\Local\Temp\ccG2yjGd.s 			page 11


 318 00b2 0222     		movs	r2, #2
 319 00b4 1A60     		str	r2, [r3]
 320 00b6 444A     		ldr	r2, .L36+24
 321 00b8 5A60     		str	r2, [r3, #4]	@ float
  88:main.c        ****                     break;
 322              		.loc 1 88 0
 323 00ba 2AE0     		b	.L21
 324              	.L25:
  90:main.c        ****                     Hardware_Cargar_Coeficientes(COEFFS_146_83, sizeof(COEFFS_146_83));
 325              		.loc 1 90 0
 326 00bc 4FF4A271 		mov	r1, #324
 327 00c0 4248     		ldr	r0, .L36+28
 328 00c2 FFF7FEFF 		bl	Hardware_Cargar_Coeficientes
 329              	.LVL49:
  91:main.c        ****                     cuerda_actual = 3; freq_objetivo = 146.8f;
 330              		.loc 1 91 0
 331 00c6 3D4B     		ldr	r3, .L36+12
 332 00c8 0322     		movs	r2, #3
 333 00ca 1A60     		str	r2, [r3]
 334 00cc 404A     		ldr	r2, .L36+32
 335 00ce 5A60     		str	r2, [r3, #4]	@ float
  92:main.c        ****                     break;
 336              		.loc 1 92 0
 337 00d0 1FE0     		b	.L21
 338              	.L26:
  94:main.c        ****                     Hardware_Cargar_Coeficientes(COEFFS_196, sizeof(COEFFS_196));
 339              		.loc 1 94 0
 340 00d2 4FF4A271 		mov	r1, #324
 341 00d6 3F48     		ldr	r0, .L36+36
 342 00d8 FFF7FEFF 		bl	Hardware_Cargar_Coeficientes
 343              	.LVL50:
  95:main.c        ****                     cuerda_actual = 4; freq_objetivo = 196.0f;
 344              		.loc 1 95 0
 345 00dc 374B     		ldr	r3, .L36+12
 346 00de 0422     		movs	r2, #4
 347 00e0 1A60     		str	r2, [r3]
 348 00e2 3D4A     		ldr	r2, .L36+40
 349 00e4 5A60     		str	r2, [r3, #4]	@ float
  96:main.c        ****                     break;
 350              		.loc 1 96 0
 351 00e6 14E0     		b	.L21
 352              	.L27:
  98:main.c        ****                     Hardware_Cargar_Coeficientes(COEFFS_246_94, sizeof(COEFFS_246_94));
 353              		.loc 1 98 0
 354 00e8 4FF4A271 		mov	r1, #324
 355 00ec 3B48     		ldr	r0, .L36+44
 356 00ee FFF7FEFF 		bl	Hardware_Cargar_Coeficientes
 357              	.LVL51:
  99:main.c        ****                     cuerda_actual = 5; freq_objetivo = 246.9f;
 358              		.loc 1 99 0
 359 00f2 324B     		ldr	r3, .L36+12
 360 00f4 0522     		movs	r2, #5
 361 00f6 1A60     		str	r2, [r3]
 362 00f8 394A     		ldr	r2, .L36+48
 363 00fa 5A60     		str	r2, [r3, #4]	@ float
 100:main.c        ****                     break;
 364              		.loc 1 100 0
ARM GAS  C:\Users\Admin\AppData\Local\Temp\ccG2yjGd.s 			page 12


 365 00fc 09E0     		b	.L21
 366              	.L28:
 102:main.c        ****                     Hardware_Cargar_Coeficientes(COEFFS_330, sizeof(COEFFS_330));
 367              		.loc 1 102 0
 368 00fe 4FF4A271 		mov	r1, #324
 369 0102 3848     		ldr	r0, .L36+52
 370 0104 FFF7FEFF 		bl	Hardware_Cargar_Coeficientes
 371              	.LVL52:
 103:main.c        ****                     cuerda_actual = 6; freq_objetivo = 329.6f;
 372              		.loc 1 103 0
 373 0108 2C4B     		ldr	r3, .L36+12
 374 010a 0622     		movs	r2, #6
 375 010c 1A60     		str	r2, [r3]
 376 010e 364A     		ldr	r2, .L36+56
 377 0110 5A60     		str	r2, [r3, #4]	@ float
 378              	.L21:
 110:main.c        ****             if(cuerda_actual > 0) {
 379              		.loc 1 110 0
 380 0112 2A4B     		ldr	r3, .L36+12
 381 0114 1B68     		ldr	r3, [r3]
 382 0116 002B     		cmp	r3, #0
 383 0118 13DD     		ble	.L33
 111:main.c        ****                 LCD_Clear();
 384              		.loc 1 111 0
 385 011a FFF7FEFF 		bl	LCD_Clear
 386              	.LVL53:
 112:main.c        ****                 LCD_SetCursor(0,0);
 387              		.loc 1 112 0
 388 011e 0021     		movs	r1, #0
 389 0120 0846     		mov	r0, r1
 390 0122 FFF7FEFF 		bl	LCD_SetCursor
 391              	.LVL54:
 113:main.c        ****                 sprintf(buffer_LCD, "Cuerda %d...", cuerda_actual);
 392              		.loc 1 113 0
 393 0126 314C     		ldr	r4, .L36+60
 394 0128 244B     		ldr	r3, .L36+12
 395 012a 1A68     		ldr	r2, [r3]
 396 012c 3049     		ldr	r1, .L36+64
 397 012e 2046     		mov	r0, r4
 398 0130 FFF7FEFF 		bl	sprintf
 399              	.LVL55:
 114:main.c        ****                 LCD_Print(buffer_LCD);
 400              		.loc 1 114 0
 401 0134 2046     		mov	r0, r4
 402 0136 FFF7FEFF 		bl	LCD_Print
 403              	.LVL56:
 117:main.c        ****                 Hardware_Reiniciar_Proceso();
 404              		.loc 1 117 0
 405 013a FFF7FEFF 		bl	Hardware_Reiniciar_Proceso
 406              	.LVL57:
 119:main.c        ****             sw_estado_ant = sw_lectura;
 407              		.loc 1 119 0
 408 013e 2E46     		mov	r6, r5
 409              	.LVL58:
 410 0140 00E0     		b	.L20
 411              	.LVL59:
 412              	.L33:
ARM GAS  C:\Users\Admin\AppData\Local\Temp\ccG2yjGd.s 			page 13


 413 0142 2E46     		mov	r6, r5
 414              	.LVL60:
 415              	.L20:
 126:main.c        ****         if (cuerda_actual > 0)
 416              		.loc 1 126 0
 417 0144 1D4B     		ldr	r3, .L36+12
 418 0146 1B68     		ldr	r3, [r3]
 419 0148 002B     		cmp	r3, #0
 420 014a 0EDC     		bgt	.L34
 421 014c 86E7     		b	.L19
 422              	.LVL61:
 423              	.L31:
 424              	.LBB3:
 135:main.c        ****                 ADC_DelSig_1_IsEndConversion(ADC_DelSig_1_WAIT_FOR_RESULT);
 425              		.loc 1 135 0
 426 014e 0020     		movs	r0, #0
 427 0150 FFF7FEFF 		bl	ADC_DelSig_1_IsEndConversion
 428              	.LVL62:
 138:main.c        ****                 uint16 lectura_adc = ADC_DelSig_1_GetResult16();
 429              		.loc 1 138 0
 430 0154 FFF7FEFF 		bl	ADC_DelSig_1_GetResult16
 431              	.LVL63:
 158:main.c        ****                 y_entrada[i] = (int)lectura_adc;
 432              		.loc 1 158 0
 433 0158 184D     		ldr	r5, .L36+12
 434 015a 05EB8405 		add	r5, r5, r4, lsl #2
 435 015e 80B2     		uxth	r0, r0
 436 0160 FFF7FEFF 		bl	__aeabi_i2f
 437              	.LVL64:
 438 0164 A860     		str	r0, [r5, #8]	@ float
 439              	.LBE3:
 129:main.c        ****             for(i = 0; i < N; i++)
 440              		.loc 1 129 0
 441 0166 0134     		adds	r4, r4, #1
 442              	.LVL65:
 443 0168 00E0     		b	.L29
 444              	.LVL66:
 445              	.L34:
 446 016a 0024     		movs	r4, #0
 447              	.LVL67:
 448              	.L29:
 129:main.c        ****             for(i = 0; i < N; i++)
 449              		.loc 1 129 0 is_stmt 0 discriminator 1
 450 016c B4F5806F 		cmp	r4, #1024
 451 0170 EDDB     		blt	.L31
 167:main.c        ****             convertToQ32(y_entrada, y_entrada_q32, N);
 452              		.loc 1 167 0 is_stmt 1
 453 0172 4FF48062 		mov	r2, #1024
 454 0176 1F49     		ldr	r1, .L36+68
 455 0178 1F48     		ldr	r0, .L36+72
 456 017a FFF7FEFF 		bl	convertToQ32
 457              	.LVL68:
 170:main.c        ****             dma_transfer_complete = 0; // Resetear bandera
 458              		.loc 1 170 0
 459 017e 0022     		movs	r2, #0
 460 0180 1E4B     		ldr	r3, .L36+76
 461 0182 1A70     		strb	r2, [r3]
ARM GAS  C:\Users\Admin\AppData\Local\Temp\ccG2yjGd.s 			page 14


 171:main.c        ****             Hardware_Configurar_Disparar_DMA();
 462              		.loc 1 171 0
 463 0184 FFF7FEFF 		bl	Hardware_Configurar_Disparar_DMA
 464              	.LVL69:
 465              	.L32:
 174:main.c        ****             while(dma_transfer_complete == 0)
 466              		.loc 1 174 0 discriminator 1
 467 0188 1C4B     		ldr	r3, .L36+76
 468 018a 1B78     		ldrb	r3, [r3]	@ zero_extendqisi2
 469 018c 13F0FF0F 		tst	r3, #255
 470 0190 FAD0     		beq	.L32
 181:main.c        ****             freq_calculada = Calcular_Frecuencia_Regresion(y_salida_pulsos_hw, N);
 471              		.loc 1 181 0
 472 0192 4FF48061 		mov	r1, #1024
 473 0196 1A48     		ldr	r0, .L36+80
 474 0198 FFF7FEFF 		bl	Calcular_Frecuencia_Regresion
 475              	.LVL70:
 476 019c 194B     		ldr	r3, .L36+84
 477 019e 43F8F00C 		str	r0, [r3, #-240]	@ float
 184:main.c        ****             Actualizar_LCD_Resultado(freq_calculada, freq_objetivo, cuerda_actual);
 478              		.loc 1 184 0
 479 01a2 064B     		ldr	r3, .L36+12
 480 01a4 1A68     		ldr	r2, [r3]
 481 01a6 5968     		ldr	r1, [r3, #4]	@ float
 482 01a8 FFF7FEFF 		bl	Actualizar_LCD_Resultado
 483              	.LVL71:
 484 01ac 56E7     		b	.L19
 485              	.L37:
 486 01ae 00BF     		.align	2
 487              	.L36:
 488 01b0 70000000 		.word	.LC6
 489 01b4 7C000000 		.word	.LC7
 490 01b8 00000000 		.word	COEFFS_82_4
 491 01bc 00000000 		.word	.LANCHOR0
 492 01c0 CDCCA442 		.word	1118096589
 493 01c4 00000000 		.word	COEFFS_110
 494 01c8 0000DC42 		.word	1121714176
 495 01cc 00000000 		.word	COEFFS_146_83
 496 01d0 CDCC1243 		.word	1125305549
 497 01d4 00000000 		.word	COEFFS_196
 498 01d8 00004443 		.word	1128529920
 499 01dc 00000000 		.word	COEFFS_246_94
 500 01e0 66E67643 		.word	1131865702
 501 01e4 00000000 		.word	COEFFS_330
 502 01e8 CDCCA443 		.word	1134873805
 503 01ec 00000000 		.word	buffer_LCD
 504 01f0 88000000 		.word	.LC8
 505 01f4 00000000 		.word	y_entrada_q32
 506 01f8 08000000 		.word	.LANCHOR0+8
 507 01fc 00000000 		.word	dma_transfer_complete
 508 0200 00000000 		.word	y_salida_pulsos_hw
 509 0204 F8100000 		.word	.LANCHOR1
 510              		.cfi_endproc
 511              	.LFE64:
 512              		.size	main, .-main
 513              		.comm	buffer_LCD,20,4
 514              		.global	freq_calculada
ARM GAS  C:\Users\Admin\AppData\Local\Temp\ccG2yjGd.s 			page 15


 515              		.global	freq_objetivo
 516              		.global	cuerda_actual
 517              		.global	y_entrada
 518              		.section	.rodata.str1.4,"aMS",%progbits,1
 519              		.align	2
 520              	.LC0:
 521 0000 4325643A 		.ascii	"C%d: %.1f Hz   \000"
 521      20252E31 
 521      6620487A 
 521      20202000 
 522              	.LC1:
 523 0010 3E3E2054 		.ascii	">> TENSAR (+)   \000"
 523      454E5341 
 523      5220282B 
 523      29202020 
 523      00
 524 0021 000000   		.space	3
 525              	.LC2:
 526 0024 3C3C2041 		.ascii	"<< AFLOJAR (-)  \000"
 526      464C4F4A 
 526      41522028 
 526      2D292020 
 526      00
 527 0035 000000   		.space	3
 528              	.LC3:
 529 0038 2A2A2041 		.ascii	"** AFINADO **   \000"
 529      46494E41 
 529      444F202A 
 529      2A202020 
 529      00
 530 0049 000000   		.space	3
 531              	.LC4:
 532 004c 43756572 		.ascii	"Cuerda %d (---)\000"
 532      64612025 
 532      6420282D 
 532      2D2D2900 
 533              	.LC5:
 534 005c 45736375 		.ascii	"Escuchando...   \000"
 534      6368616E 
 534      646F2E2E 
 534      2E202020 
 534      00
 535 006d 000000   		.space	3
 536              	.LC6:
 537 0070 4166696E 		.ascii	"Afinador\000"
 537      61646F72 
 537      00
 538 0079 000000   		.space	3
 539              	.LC7:
 540 007c 4C697374 		.ascii	"Listo...\000"
 540      6F2E2E2E 
 540      00
 541 0085 000000   		.space	3
 542              	.LC8:
 543 0088 43756572 		.ascii	"Cuerda %d...\000"
 543      64612025 
 543      642E2E2E 
ARM GAS  C:\Users\Admin\AppData\Local\Temp\ccG2yjGd.s 			page 16


 543      00
 544              		.bss
 545              		.align	2
 546              		.set	.LANCHOR0,. + 0
 547              		.set	.LANCHOR1,. + 4344
 548              		.type	cuerda_actual, %object
 549              		.size	cuerda_actual, 4
 550              	cuerda_actual:
 551 0000 00000000 		.space	4
 552              		.type	freq_objetivo, %object
 553              		.size	freq_objetivo, 4
 554              	freq_objetivo:
 555 0004 00000000 		.space	4
 556              		.type	y_entrada, %object
 557              		.size	y_entrada, 4096
 558              	y_entrada:
 559 0008 00000000 		.space	4096
 559      00000000 
 559      00000000 
 559      00000000 
 559      00000000 
 560              		.type	freq_calculada, %object
 561              		.size	freq_calculada, 4
 562              	freq_calculada:
 563 1008 00000000 		.space	4
 564              		.text
 565              	.Letext0:
 566              		.file 2 "e:\\cypress\\psoc creator\\4.4\\psoc creator\\import\\gnu\\arm\\5.4.1\\arm-none-eabi\\inc
 567              		.file 3 "e:\\cypress\\psoc creator\\4.4\\psoc creator\\import\\gnu\\arm\\5.4.1\\arm-none-eabi\\inc
 568              		.file 4 "Generated_Source\\PSoC5/cytypes.h"
 569              		.file 5 "Generated_Source\\PSoC5/core_cm3.h"
 570              		.file 6 "coeficientes.h"
 571              		.file 7 "gestion_hardware.h"
 572              		.file 8 "e:\\cypress\\psoc creator\\4.4\\psoc creator\\import\\gnu\\arm\\5.4.1\\arm-none-eabi\\inc
 573              		.file 9 "lcd_i2c.h"
 574              		.file 10 "Generated_Source\\PSoC5/CyLib.h"
 575              		.file 11 "Generated_Source\\PSoC5/ADC_DelSig_1.h"
 576              		.file 12 "Generated_Source\\PSoC5/I2C_1.h"
 577              		.file 13 "Generated_Source\\PSoC5/OpAmp_Vref.h"
 578              		.file 14 "Generated_Source\\PSoC5/PGA_1.h"
 579              		.file 15 "Generated_Source\\PSoC5/OpAmp_Filtro1.h"
 580              		.file 16 "Generated_Source\\PSoC5/OpAmp_Filtro2.h"
 581              		.file 17 "Generated_Source\\PSoC5/OpAmp_Acoplador.h"
 582              		.file 18 "Generated_Source\\PSoC5/BIT1.h"
 583              		.file 19 "Generated_Source\\PSoC5/BIT2.h"
 584              		.file 20 "Generated_Source\\PSoC5/BIT3.h"
 585              		.file 21 "procesamiento.h"