ARM GAS  C:\Users\Admin\AppData\Local\Temp\ccj7gJlf.s 			page 1


   1              		.syntax unified
   2              		.cpu cortex-m3
   3              		.fpu softvfp
   4              		.eabi_attribute 20, 1
   5              		.eabi_attribute 21, 1
   6              		.eabi_attribute 23, 3
   7              		.eabi_attribute 24, 1
   8              		.eabi_attribute 25, 1
   9              		.eabi_attribute 26, 1
  10              		.eabi_attribute 30, 1
  11              		.eabi_attribute 34, 1
  12              		.eabi_attribute 18, 4
  13              		.thumb
  14              		.syntax unified
  15              		.file	"procesamiento.c"
  16              		.text
  17              	.Ltext0:
  18              		.cfi_sections	.debug_frame
  19              		.global	__aeabi_f2iz
  20              		.section	.text.convertToQ32,"ax",%progbits
  21              		.align	2
  22              		.global	convertToQ32
  23              		.thumb
  24              		.thumb_func
  25              		.type	convertToQ32, %function
  26              	convertToQ32:
  27              	.LFB63:
  28              		.file 1 "procesamiento.c"
   1:procesamiento.c **** #include "procesamiento.h"
   2:procesamiento.c **** #include <string.h> // Para memcpy
   3:procesamiento.c **** 
   4:procesamiento.c **** 
   5:procesamiento.c **** void convertToQ32(const float* input, uint32_t* output, size_t size) {
  29              		.loc 1 5 0
  30              		.cfi_startproc
  31              		@ args = 0, pretend = 0, frame = 0
  32              		@ frame_needed = 0, uses_anonymous_args = 0
  33              	.LVL0:
  34 0000 F8B5     		push	{r3, r4, r5, r6, r7, lr}
  35              		.cfi_def_cfa_offset 24
  36              		.cfi_offset 3, -24
  37              		.cfi_offset 4, -20
  38              		.cfi_offset 5, -16
  39              		.cfi_offset 6, -12
  40              		.cfi_offset 7, -8
  41              		.cfi_offset 14, -4
  42 0002 0746     		mov	r7, r0
  43 0004 0E46     		mov	r6, r1
  44 0006 1546     		mov	r5, r2
  45              	.LVL1:
  46              	.LBB2:
   6:procesamiento.c ****     for (size_t i = 0; i < size; i++) {
  47              		.loc 1 6 0
  48 0008 0024     		movs	r4, #0
  49 000a 06E0     		b	.L2
  50              	.LVL2:
  51              	.L3:
ARM GAS  C:\Users\Admin\AppData\Local\Temp\ccj7gJlf.s 			page 2


  52              	.LBB3:
   7:procesamiento.c ****         // Opción A: Si input viene del ADC (ej. 15000.0)
   8:procesamiento.c ****         // Convertimos a entero y desplazamos 8 bits a la izquierda.
   9:procesamiento.c ****         // Esto convierte 16 bits en 24 bits efectivos para el DFB.
  10:procesamiento.c ****         // Ejemplo: 0x7FFF (max ADC) -> 0x7FFF00 (Alto volumen para DFB)
  11:procesamiento.c ****         
  12:procesamiento.c ****         int32_t valor_temp = (int32_t)input[i];
  53              		.loc 1 12 0 discriminator 3
  54 000c 57F82400 		ldr	r0, [r7, r4, lsl #2]	@ float
  55 0010 FFF7FEFF 		bl	__aeabi_f2iz
  56              	.LVL3:
  13:procesamiento.c ****         output[i] = (uint32_t)(valor_temp); 
  57              		.loc 1 13 0 discriminator 3
  58 0014 46F82400 		str	r0, [r6, r4, lsl #2]
  59              	.LBE3:
   6:procesamiento.c ****     for (size_t i = 0; i < size; i++) {
  60              		.loc 1 6 0 discriminator 3
  61 0018 0134     		adds	r4, r4, #1
  62              	.LVL4:
  63              	.L2:
   6:procesamiento.c ****     for (size_t i = 0; i < size; i++) {
  64              		.loc 1 6 0 is_stmt 0 discriminator 1
  65 001a AC42     		cmp	r4, r5
  66 001c F6D3     		bcc	.L3
  67              	.LBE2:
  14:procesamiento.c ****     }
  15:procesamiento.c **** }
  68              		.loc 1 15 0 is_stmt 1
  69 001e F8BD     		pop	{r3, r4, r5, r6, r7, pc}
  70              		.cfi_endproc
  71              	.LFE63:
  72              		.size	convertToQ32, .-convertToQ32
  73              		.global	__aeabi_i2d
  74              		.global	__aeabi_dadd
  75              		.global	__aeabi_dmul
  76              		.global	__aeabi_dsub
  77              		.global	__aeabi_dcmpeq
  78              		.global	__aeabi_ddiv
  79              		.global	__aeabi_d2f
  80              		.global	__aeabi_fcmpgt
  81              		.global	__aeabi_fdiv
  82              		.global	__aeabi_fmul
  83              		.section	.text.Calcular_Frecuencia_Regresion,"ax",%progbits
  84              		.align	2
  85              		.global	Calcular_Frecuencia_Regresion
  86              		.thumb
  87              		.thumb_func
  88              		.type	Calcular_Frecuencia_Regresion, %function
  89              	Calcular_Frecuencia_Regresion:
  90              	.LFB64:
  16:procesamiento.c **** 
  17:procesamiento.c **** float Calcular_Frecuencia_Regresion(const uint8_t* datos, uint16 size) {
  91              		.loc 1 17 0
  92              		.cfi_startproc
  93              		@ args = 0, pretend = 0, frame = 32
  94              		@ frame_needed = 0, uses_anonymous_args = 0
  95              	.LVL5:
ARM GAS  C:\Users\Admin\AppData\Local\Temp\ccj7gJlf.s 			page 3


  96 0000 2DE9F04F 		push	{r4, r5, r6, r7, r8, r9, r10, fp, lr}
  97              		.cfi_def_cfa_offset 36
  98              		.cfi_offset 4, -36
  99              		.cfi_offset 5, -32
 100              		.cfi_offset 6, -28
 101              		.cfi_offset 7, -24
 102              		.cfi_offset 8, -20
 103              		.cfi_offset 9, -16
 104              		.cfi_offset 10, -12
 105              		.cfi_offset 11, -8
 106              		.cfi_offset 14, -4
 107 0004 89B0     		sub	sp, sp, #36
 108              		.cfi_def_cfa_offset 72
 109 0006 8346     		mov	fp, r0
 110 0008 8A46     		mov	r10, r1
 111              	.LVL6:
 112              	.LBB4:
  18:procesamiento.c ****     double sum_x = 0, sum_y = 0, sum_xy = 0, sum_xx = 0;
  19:procesamiento.c ****     int pulse_count = 0;
  20:procesamiento.c ****     float frecuencia = 0.0f;
  21:procesamiento.c **** 
  22:procesamiento.c ****     for(int i = 0; i < size; i++) {
 113              		.loc 1 22 0
 114 000a 0024     		movs	r4, #0
 115              	.LBE4:
  19:procesamiento.c ****     float frecuencia = 0.0f;
 116              		.loc 1 19 0
 117 000c 2546     		mov	r5, r4
  18:procesamiento.c ****     double sum_x = 0, sum_y = 0, sum_xy = 0, sum_xx = 0;
 118              		.loc 1 18 0
 119 000e 4FF00008 		mov	r8, #0
 120 0012 4FF00009 		mov	r9, #0
 121 0016 CDE90689 		strd	r8, [sp, #24]
 122 001a CDE90489 		strd	r8, [sp, #16]
 123 001e CDE90289 		strd	r8, [sp, #8]
 124              	.LBB5:
 125              		.loc 1 22 0
 126 0022 3CE0     		b	.L6
 127              	.LVL7:
 128              	.L8:
  23:procesamiento.c ****         if (datos[i] & 0x01) { // Si hay pulso (LSB = 1)
 129              		.loc 1 23 0
 130 0024 1BF80430 		ldrb	r3, [fp, r4]	@ zero_extendqisi2
 131 0028 13F0010F 		tst	r3, #1
 132 002c 36D0     		beq	.L7
  24:procesamiento.c ****             sum_x += pulse_count;
 133              		.loc 1 24 0
 134 002e 2846     		mov	r0, r5
 135 0030 FFF7FEFF 		bl	__aeabi_i2d
 136              	.LVL8:
 137 0034 0646     		mov	r6, r0
 138 0036 0F46     		mov	r7, r1
 139 0038 0246     		mov	r2, r0
 140 003a 0B46     		mov	r3, r1
 141 003c DDE90201 		ldrd	r0, [sp, #8]
 142 0040 FFF7FEFF 		bl	__aeabi_dadd
 143              	.LVL9:
ARM GAS  C:\Users\Admin\AppData\Local\Temp\ccj7gJlf.s 			page 4


 144 0044 CDE90201 		strd	r0, [sp, #8]
 145              	.LVL10:
  25:procesamiento.c ****             sum_y += i;
 146              		.loc 1 25 0
 147 0048 2046     		mov	r0, r4
 148              	.LVL11:
 149 004a FFF7FEFF 		bl	__aeabi_i2d
 150              	.LVL12:
 151 004e CDE90001 		strd	r0, [sp]
 152 0052 0246     		mov	r2, r0
 153 0054 0B46     		mov	r3, r1
 154 0056 DDE90401 		ldrd	r0, [sp, #16]
 155 005a FFF7FEFF 		bl	__aeabi_dadd
 156              	.LVL13:
 157 005e CDE90401 		strd	r0, [sp, #16]
 158              	.LVL14:
  26:procesamiento.c ****             sum_xy += (double)pulse_count * i;
 159              		.loc 1 26 0
 160 0062 DDE90023 		ldrd	r2, [sp]
 161 0066 3046     		mov	r0, r6
 162              	.LVL15:
 163 0068 3946     		mov	r1, r7
 164 006a FFF7FEFF 		bl	__aeabi_dmul
 165              	.LVL16:
 166 006e 0246     		mov	r2, r0
 167 0070 0B46     		mov	r3, r1
 168 0072 DDE90601 		ldrd	r0, [sp, #24]
 169 0076 FFF7FEFF 		bl	__aeabi_dadd
 170              	.LVL17:
 171 007a CDE90601 		strd	r0, [sp, #24]
 172              	.LVL18:
  27:procesamiento.c ****             sum_xx += (double)pulse_count * pulse_count;
 173              		.loc 1 27 0
 174 007e 3246     		mov	r2, r6
 175 0080 3B46     		mov	r3, r7
 176 0082 3046     		mov	r0, r6
 177              	.LVL19:
 178 0084 3946     		mov	r1, r7
 179 0086 FFF7FEFF 		bl	__aeabi_dmul
 180              	.LVL20:
 181 008a 0246     		mov	r2, r0
 182 008c 0B46     		mov	r3, r1
 183 008e 4046     		mov	r0, r8
 184 0090 4946     		mov	r1, r9
 185 0092 FFF7FEFF 		bl	__aeabi_dadd
 186              	.LVL21:
 187 0096 8046     		mov	r8, r0
 188              	.LVL22:
 189 0098 8946     		mov	r9, r1
 190              	.LVL23:
  28:procesamiento.c ****             pulse_count++;
 191              		.loc 1 28 0
 192 009a 0135     		adds	r5, r5, #1
 193              	.LVL24:
 194              	.L7:
  22:procesamiento.c ****         if (datos[i] & 0x01) { // Si hay pulso (LSB = 1)
 195              		.loc 1 22 0 discriminator 2
ARM GAS  C:\Users\Admin\AppData\Local\Temp\ccj7gJlf.s 			page 5


 196 009c 0134     		adds	r4, r4, #1
 197              	.LVL25:
 198              	.L6:
  22:procesamiento.c ****         if (datos[i] & 0x01) { // Si hay pulso (LSB = 1)
 199              		.loc 1 22 0 is_stmt 0 discriminator 1
 200 009e 5445     		cmp	r4, r10
 201 00a0 C0DB     		blt	.L8
 202              	.LBE5:
  29:procesamiento.c ****         }
  30:procesamiento.c ****     }
  31:procesamiento.c **** 
  32:procesamiento.c ****     if (pulse_count > 1) {
 203              		.loc 1 32 0 is_stmt 1
 204 00a2 012D     		cmp	r5, #1
 205 00a4 4BDD     		ble	.L12
 206              	.LBB6:
  33:procesamiento.c ****         double n_dbl = (double)pulse_count;
 207              		.loc 1 33 0
 208 00a6 2846     		mov	r0, r5
 209 00a8 FFF7FEFF 		bl	__aeabi_i2d
 210              	.LVL26:
 211 00ac 0446     		mov	r4, r0
 212              	.LVL27:
 213 00ae 0D46     		mov	r5, r1
 214              	.LVL28:
  34:procesamiento.c ****         double numerator = (n_dbl * sum_xy) - (sum_x * sum_y);
 215              		.loc 1 34 0
 216 00b0 0246     		mov	r2, r0
 217 00b2 0B46     		mov	r3, r1
 218 00b4 DDE90601 		ldrd	r0, [sp, #24]
 219 00b8 FFF7FEFF 		bl	__aeabi_dmul
 220              	.LVL29:
 221 00bc 0646     		mov	r6, r0
 222 00be 0F46     		mov	r7, r1
 223 00c0 DDE90423 		ldrd	r2, [sp, #16]
 224 00c4 DDE90201 		ldrd	r0, [sp, #8]
 225 00c8 FFF7FEFF 		bl	__aeabi_dmul
 226              	.LVL30:
 227 00cc 0246     		mov	r2, r0
 228 00ce 0B46     		mov	r3, r1
 229 00d0 3046     		mov	r0, r6
 230 00d2 3946     		mov	r1, r7
 231 00d4 FFF7FEFF 		bl	__aeabi_dsub
 232              	.LVL31:
 233 00d8 0646     		mov	r6, r0
 234 00da 0F46     		mov	r7, r1
 235              	.LVL32:
  35:procesamiento.c ****         double denominator = (n_dbl * sum_xx) - (sum_x * sum_x);
 236              		.loc 1 35 0
 237 00dc 2246     		mov	r2, r4
 238 00de 2B46     		mov	r3, r5
 239 00e0 4046     		mov	r0, r8
 240 00e2 4946     		mov	r1, r9
 241 00e4 FFF7FEFF 		bl	__aeabi_dmul
 242              	.LVL33:
 243 00e8 0446     		mov	r4, r0
 244              	.LVL34:
ARM GAS  C:\Users\Admin\AppData\Local\Temp\ccj7gJlf.s 			page 6


 245 00ea 0D46     		mov	r5, r1
 246 00ec DDE90223 		ldrd	r2, [sp, #8]
 247 00f0 1046     		mov	r0, r2
 248 00f2 1946     		mov	r1, r3
 249 00f4 FFF7FEFF 		bl	__aeabi_dmul
 250              	.LVL35:
 251 00f8 0246     		mov	r2, r0
 252 00fa 0B46     		mov	r3, r1
 253 00fc 2046     		mov	r0, r4
 254 00fe 2946     		mov	r1, r5
 255 0100 FFF7FEFF 		bl	__aeabi_dsub
 256              	.LVL36:
 257 0104 0446     		mov	r4, r0
 258 0106 0D46     		mov	r5, r1
 259              	.LVL37:
  36:procesamiento.c ****         
  37:procesamiento.c ****         if (denominator != 0) {
 260              		.loc 1 37 0
 261 0108 0022     		movs	r2, #0
 262 010a 0023     		movs	r3, #0
 263 010c FFF7FEFF 		bl	__aeabi_dcmpeq
 264              	.LVL38:
 265 0110 B8B9     		cbnz	r0, .L17
 266              	.LBB7:
  38:procesamiento.c ****             float avg_period_samples = (float)(numerator / denominator);
 267              		.loc 1 38 0
 268 0112 2246     		mov	r2, r4
 269 0114 2B46     		mov	r3, r5
 270 0116 3046     		mov	r0, r6
 271 0118 3946     		mov	r1, r7
 272 011a FFF7FEFF 		bl	__aeabi_ddiv
 273              	.LVL39:
 274 011e FFF7FEFF 		bl	__aeabi_d2f
 275              	.LVL40:
 276 0122 0446     		mov	r4, r0
 277              	.LVL41:
  39:procesamiento.c ****             if (avg_period_samples > 0.0001f) {
 278              		.loc 1 39 0
 279 0124 0A49     		ldr	r1, .L20
 280 0126 FFF7FEFF 		bl	__aeabi_fcmpgt
 281              	.LVL42:
 282 012a 60B1     		cbz	r0, .L18
  40:procesamiento.c ****                 // Frecuencia = (Fs / muestras_por_pulso) / 2
  41:procesamiento.c ****                 frecuencia = ((SAMPLING_FREQ*Kcal) / avg_period_samples) / 2.0f;
 283              		.loc 1 41 0
 284 012c 2146     		mov	r1, r4
 285 012e 0948     		ldr	r0, .L20+4
 286 0130 FFF7FEFF 		bl	__aeabi_fdiv
 287              	.LVL43:
 288 0134 4FF07C51 		mov	r1, #1056964608
 289 0138 FFF7FEFF 		bl	__aeabi_fmul
 290              	.LVL44:
 291 013c 04E0     		b	.L9
 292              	.LVL45:
 293              	.L12:
 294              	.LBE7:
 295              	.LBE6:
ARM GAS  C:\Users\Admin\AppData\Local\Temp\ccj7gJlf.s 			page 7


  20:procesamiento.c **** 
 296              		.loc 1 20 0
 297 013e 0020     		movs	r0, #0
 298 0140 02E0     		b	.L9
 299              	.LVL46:
 300              	.L17:
 301 0142 0020     		movs	r0, #0
 302 0144 00E0     		b	.L9
 303              	.LVL47:
 304              	.L18:
 305 0146 0020     		movs	r0, #0
 306              	.LVL48:
 307              	.L9:
  42:procesamiento.c ****             }
  43:procesamiento.c ****         }
  44:procesamiento.c ****     }
  45:procesamiento.c ****     return frecuencia;
  46:procesamiento.c **** }
 308              		.loc 1 46 0
 309 0148 09B0     		add	sp, sp, #36
 310              		.cfi_def_cfa_offset 36
 311              		@ sp needed
 312 014a BDE8F08F 		pop	{r4, r5, r6, r7, r8, r9, r10, fp, pc}
 313              	.LVL49:
 314              	.L21:
 315 014e 00BF     		.align	2
 316              	.L20:
 317 0150 17B7D138 		.word	953267991
 318 0154 5238F944 		.word	1157183570
 319              		.cfi_endproc
 320              	.LFE64:
 321              		.size	Calcular_Frecuencia_Regresion, .-Calcular_Frecuencia_Regresion
 322              		.text
 323              	.Letext0:
 324              		.file 2 "e:\\cypress\\psoc creator\\4.4\\psoc creator\\import\\gnu\\arm\\5.4.1\\arm-none-eabi\\inc
 325              		.file 3 "e:\\cypress\\psoc creator\\4.4\\psoc creator\\import\\gnu\\arm\\5.4.1\\arm-none-eabi\\inc
 326              		.file 4 "Generated_Source\\PSoC5/cytypes.h"
 327              		.file 5 "e:\\cypress\\psoc creator\\4.4\\psoc creator\\import\\gnu\\arm\\5.4.1\\lib\\gcc\\arm-none
 328              		.file 6 "Generated_Source\\PSoC5/core_cm3.h"