ARM GAS  C:\Users\Admin\AppData\Local\Temp\ccbzl01X.s 			page 1


   1              		.syntax unified
   2              		.cpu cortex-m3
   3              		.fpu softvfp
   4              		.eabi_attribute 20, 1
   5              		.eabi_attribute 21, 1
   6              		.eabi_attribute 23, 3
   7              		.eabi_attribute 24, 1
   8              		.eabi_attribute 25, 1
   9              		.eabi_attribute 26, 1
  10              		.eabi_attribute 30, 1
  11              		.eabi_attribute 34, 1
  12              		.eabi_attribute 18, 4
  13              		.thumb
  14              		.syntax unified
  15              		.file	"main.c"
  16              		.text
  17              	.Ltext0:
  18              		.cfi_sections	.debug_frame
  19              		.syntax unified
  20              		.global _printf_float
  21              		.thumb
  22              		.syntax unified
  23              		.section	.text.DMA_Done_ISR,"ax",%progbits
  24              		.align	2
  25              		.global	DMA_Done_ISR
  26              		.thumb
  27              		.thumb_func
  28              		.type	DMA_Done_ISR, %function
  29              	DMA_Done_ISR:
  30              	.LFB65:
  31              		.file 1 "main.c"
   1:main.c        **** #include "project.h"
   2:main.c        **** #include <math.h>
   3:main.c        **** #include <stdio.h>
   4:main.c        **** #include <stdint.h>
   5:main.c        **** #include <string.h>
   6:main.c        **** 
   7:main.c        **** #define N 1000
   8:main.c        **** #define Q_FACTOR 8388608.0f
   9:main.c        **** 
  10:main.c        **** /* --- Buffers --- */
  11:main.c        **** static uint8 x[N*4]; 
  12:main.c        **** float y_entrada[N] = {0}; 
  13:main.c        **** float y_salida[N] = {0}; // Inicializar a 0 es más seguro
  14:main.c        **** static uint32_t y_entrada_q32[N]; 
  15:main.c        **** static uint32_t y_salida_q32[N]; 
  16:main.c        **** 
  17:main.c        **** /* --- Variables de Control --- */
  18:main.c        **** static uint16 n = 0;
  19:main.c        **** volatile uint8 estado = 0u;
  20:main.c        **** volatile uint8 dma_transfer_complete_flag = 0;
  21:main.c        **** uint8 DMA_In_Chan, DMA_Out_Chan;
  22:main.c        **** uint8 DMA_In_TD[1], DMA_Out_TD[1];
  23:main.c        **** 
  24:main.c        **** /* --- Prototipos --- */
  25:main.c        **** CY_ISR_PROTO(RxIsr);
  26:main.c        **** CY_ISR_PROTO(DMA_Done_ISR);
ARM GAS  C:\Users\Admin\AppData\Local\Temp\ccbzl01X.s 			page 2


  27:main.c        **** void my_Start();
  28:main.c        **** void convertToIntFloat(const uint8_t* input, float* output, size_t inputSize);
  29:main.c        **** void convertToQ32(const float* input, uint32_t* output, size_t size);
  30:main.c        **** void convertFromQ32(const uint32_t* input, float* output, size_t size);
  31:main.c        **** 
  32:main.c        **** 
  33:main.c        **** #if defined (__GNUC__)
  34:main.c        ****     asm(".global _printf_float");
  35:main.c        **** #endif
  36:main.c        **** 
  37:main.c        **** int main(void)
  38:main.c        **** {
  39:main.c        ****     my_Start();
  40:main.c        ****     isr_rx_StartEx(RxIsr);
  41:main.c        ****     isr_dma_done_StartEx(DMA_Done_ISR);
  42:main.c        ****     CyGlobalIntEnable;
  43:main.c        **** 
  44:main.c        ****     DMA_In_Chan = DMA_In_DmaInitialize(4, 1, HI16(CYDEV_SRAM_BASE), HI16(CYDEV_PERIPH_BASE));
  45:main.c        ****     DMA_In_TD[0] = CyDmaTdAllocate();
  46:main.c        ****     DMA_Out_Chan = DMA_Out_DmaInitialize(4, 1, HI16(CYDEV_PERIPH_BASE), HI16(CYDEV_SRAM_BASE));
  47:main.c        ****     DMA_Out_TD[0] = CyDmaTdAllocate();
  48:main.c        ****  
  49:main.c        ****     for(;;)
  50:main.c        ****     {
  51:main.c        ****         switch(estado) {
  52:main.c        ****             case '0': break;
  53:main.c        ****             case 'I': estado = '0'; break;
  54:main.c        ****             
  55:main.c        ****             case 'X': 
  56:main.c        ****                 dma_transfer_complete_flag = 0;
  57:main.c        ****                 
  58:main.c        ****                 convertToQ32(y_entrada, y_entrada_q32, N);
  59:main.c        ****                 
  60:main.c        ****                 // Configurar el DMA de Entrada
  61:main.c        ****                 CyDmaTdSetConfiguration(DMA_In_TD[0], N * 4, DMA_In_TD[0], CY_DMA_TD_INC_SRC_ADR);
  62:main.c        ****                 CyDmaTdSetAddress(DMA_In_TD[0], LO16((uint32)y_entrada_q32), LO16((uint32)Filter_1_
  63:main.c        ****                 
  64:main.c        ****                 // Configurar el DMA de Salida (la interrupción se genera al final de este)
  65:main.c        ****                 CyDmaTdSetConfiguration(DMA_Out_TD[0], N * 4, DMA_Out_TD[0], CY_DMA_TD_INC_DST_ADR 
  66:main.c        ****                 CyDmaTdSetAddress(DMA_Out_TD[0], LO16((uint32)Filter_1_HOLDA_PTR), LO16((uint32)y_s
  67:main.c        ****                 
  68:main.c        ****                 CyDmaChSetInitialTd(DMA_In_Chan, DMA_In_TD[0]);
  69:main.c        ****                 CyDmaChSetInitialTd(DMA_Out_Chan, DMA_Out_TD[0]);
  70:main.c        ****                 
  71:main.c        ****                 CyDmaChEnable(DMA_In_Chan, 1);
  72:main.c        ****                 CyDmaChEnable(DMA_Out_Chan, 1);
  73:main.c        ****                 
  74:main.c        ****                 // <-- LA SOLUCIÓN DEFINITIVA BASADA EN EL DATASHEET
  75:main.c        ****                 // Forzamos la PRIMERA transferencia del DMA por software.
  76:main.c        ****                 // Esto envía el primer dato al Filtro, rompiendo el bloqueo.
  77:main.c        ****                 // El resto de las transferencias se sincronizarán por hardware (drq).
  78:main.c        ****                 CyDmaChSetRequest(DMA_In_Chan, 1);
  79:main.c        ****                 
  80:main.c        ****                 estado = 'W';
  81:main.c        ****                 break;
  82:main.c        **** 
  83:main.c        ****             case 'W': 
ARM GAS  C:\Users\Admin\AppData\Local\Temp\ccbzl01X.s 			page 3


  84:main.c        ****                 if (dma_transfer_complete_flag == 1)
  85:main.c        ****                 {
  86:main.c        ****                     convertFromQ32(y_salida_q32, y_salida, N);
  87:main.c        ****                     estado = '0';
  88:main.c        ****                 }
  89:main.c        ****                 break;
  90:main.c        **** 
  91:main.c        ****             case 'P': 
  92:main.c        ****                 for(int j = 0; j < N; j++) { 
  93:main.c        ****                     Chart_1_Plot(y_entrada[j]);
  94:main.c        ****                 }
  95:main.c        ****                 estado = '0';
  96:main.c        ****                 break;
  97:main.c        ****                 
  98:main.c        ****             case 'F': 
  99:main.c        ****                 for(int j = 0; j < N; j++) {
 100:main.c        ****                     Chart_1_Plot(y_salida[j]);
 101:main.c        ****                 }
 102:main.c        ****                 estado = '0';
 103:main.c        ****             break;
 104:main.c        ****         }
 105:main.c        ****     }
 106:main.c        **** }
 107:main.c        **** 
 108:main.c        **** /* --- ISRs y Funciones de Utilidad (SIN CAMBIOS) --- */
 109:main.c        **** 
 110:main.c        **** CY_ISR(DMA_Done_ISR)
 111:main.c        **** {
  32              		.loc 1 111 0
  33              		.cfi_startproc
  34              		@ args = 0, pretend = 0, frame = 0
  35              		@ frame_needed = 0, uses_anonymous_args = 0
  36 0000 08B5     		push	{r3, lr}
  37              		.cfi_def_cfa_offset 8
  38              		.cfi_offset 3, -8
  39              		.cfi_offset 14, -4
 112:main.c        ****     // Esta ISR se dispara cuando el DMA_Out termina,
 113:main.c        ****     // lo que significa que todo el bloque ha sido procesado.
 114:main.c        ****     dma_transfer_complete_flag = 1;
  40              		.loc 1 114 0
  41 0002 0122     		movs	r2, #1
  42 0004 024B     		ldr	r3, .L3
  43 0006 1A70     		strb	r2, [r3]
 115:main.c        ****     isr_dma_done_ClearPending();
  44              		.loc 1 115 0
  45 0008 FFF7FEFF 		bl	isr_dma_done_ClearPending
  46              	.LVL0:
  47 000c 08BD     		pop	{r3, pc}
  48              	.L4:
  49 000e 00BF     		.align	2
  50              	.L3:
  51 0010 00000000 		.word	.LANCHOR0
  52              		.cfi_endproc
  53              	.LFE65:
  54              		.size	DMA_Done_ISR, .-DMA_Done_ISR
  55              		.section	.text.convertToIntFloat,"ax",%progbits
  56              		.align	2
ARM GAS  C:\Users\Admin\AppData\Local\Temp\ccbzl01X.s 			page 4


  57              		.global	convertToIntFloat
  58              		.thumb
  59              		.thumb_func
  60              		.type	convertToIntFloat, %function
  61              	convertToIntFloat:
  62              	.LFB67:
 116:main.c        **** }
 117:main.c        **** 
 118:main.c        **** CY_ISR(RxIsr)
 119:main.c        **** {
 120:main.c        ****     uint8 rxData;
 121:main.c        ****     while((UART_1_GetRxBufferSize() > 0))
 122:main.c        ****     {
 123:main.c        ****         rxData = UART_1_ReadRxData();
 124:main.c        ****         if (rxData == 'I' || rxData == 'P' || rxData == 'F') {
 125:main.c        ****             estado = rxData;
 126:main.c        ****             n = 0;
 127:main.c        ****         } else {
 128:main.c        ****             if (n < (N * 4)) x[n++] = rxData;
 129:main.c        ****             if (n == (N * 4)) { 
 130:main.c        ****                 convertToIntFloat(x, y_entrada, N*4);
 131:main.c        ****                 estado = 'X'; 
 132:main.c        ****                 n = 0;
 133:main.c        ****             }
 134:main.c        ****         }
 135:main.c        ****     }
 136:main.c        ****     isr_rx_ClearPending(); 
 137:main.c        **** }
 138:main.c        **** 
 139:main.c        **** void convertToIntFloat(const uint8_t* input, float* output, size_t inputSize) {
  63              		.loc 1 139 0
  64              		.cfi_startproc
  65              		@ args = 0, pretend = 0, frame = 8
  66              		@ frame_needed = 0, uses_anonymous_args = 0
  67              		@ link register save eliminated.
  68              	.LVL1:
  69 0000 30B4     		push	{r4, r5}
  70              		.cfi_def_cfa_offset 8
  71              		.cfi_offset 4, -8
  72              		.cfi_offset 5, -4
  73 0002 82B0     		sub	sp, sp, #8
  74              		.cfi_def_cfa_offset 16
  75 0004 0546     		mov	r5, r0
  76              	.LVL2:
  77              	.LBB2:
 140:main.c        ****     for (size_t i = 0; i < inputSize; i += 4) {
  78              		.loc 1 140 0
  79 0006 0023     		movs	r3, #0
  80 0008 06E0     		b	.L6
  81              	.LVL3:
  82              	.L7:
  83              	.LBB3:
 141:main.c        ****         // Usar memcpy es más seguro y portable que el type-punning
 142:main.c        ****         uint32_t temp;
 143:main.c        ****         memcpy(&temp, input + i, sizeof(uint32_t));
  84              		.loc 1 143 0 discriminator 3
  85 000a E858     		ldr	r0, [r5, r3]	@ unaligned
ARM GAS  C:\Users\Admin\AppData\Local\Temp\ccbzl01X.s 			page 5


  86 000c 0190     		str	r0, [sp, #4]	@ unaligned
 144:main.c        ****         memcpy(output + (i / 4), &temp, sizeof(float));
  87              		.loc 1 144 0 discriminator 3
  88 000e 9C08     		lsrs	r4, r3, #2
  89 0010 0198     		ldr	r0, [sp, #4]	@ unaligned
  90 0012 41F82400 		str	r0, [r1, r4, lsl #2]	@ unaligned
  91              	.LBE3:
 140:main.c        ****     for (size_t i = 0; i < inputSize; i += 4) {
  92              		.loc 1 140 0 discriminator 3
  93 0016 0433     		adds	r3, r3, #4
  94              	.LVL4:
  95              	.L6:
 140:main.c        ****     for (size_t i = 0; i < inputSize; i += 4) {
  96              		.loc 1 140 0 is_stmt 0 discriminator 1
  97 0018 9342     		cmp	r3, r2
  98 001a F6D3     		bcc	.L7
  99              	.LBE2:
 145:main.c        ****     }
 146:main.c        **** }
 100              		.loc 1 146 0 is_stmt 1
 101 001c 02B0     		add	sp, sp, #8
 102              		.cfi_def_cfa_offset 8
 103              		@ sp needed
 104 001e 30BC     		pop	{r4, r5}
 105              		.cfi_restore 5
 106              		.cfi_restore 4
 107              		.cfi_def_cfa_offset 0
 108              	.LVL5:
 109 0020 7047     		bx	lr
 110              		.cfi_endproc
 111              	.LFE67:
 112              		.size	convertToIntFloat, .-convertToIntFloat
 113 0022 00BF     		.section	.text.RxIsr,"ax",%progbits
 114              		.align	2
 115              		.global	RxIsr
 116              		.thumb
 117              		.thumb_func
 118              		.type	RxIsr, %function
 119              	RxIsr:
 120              	.LFB66:
 119:main.c        ****     uint8 rxData;
 121              		.loc 1 119 0
 122              		.cfi_startproc
 123              		@ args = 0, pretend = 0, frame = 0
 124              		@ frame_needed = 0, uses_anonymous_args = 0
 125 0000 10B5     		push	{r4, lr}
 126              		.cfi_def_cfa_offset 8
 127              		.cfi_offset 4, -8
 128              		.cfi_offset 14, -4
 121:main.c        ****     {
 129              		.loc 1 121 0
 130 0002 27E0     		b	.L10
 131              	.L15:
 123:main.c        ****         if (rxData == 'I' || rxData == 'P' || rxData == 'F') {
 132              		.loc 1 123 0
 133 0004 FFF7FEFF 		bl	UART_1_ReadRxData
 134              	.LVL6:
ARM GAS  C:\Users\Admin\AppData\Local\Temp\ccbzl01X.s 			page 6


 124:main.c        ****             estado = rxData;
 135              		.loc 1 124 0
 136 0008 4928     		cmp	r0, #73
 137 000a 03D0     		beq	.L11
 124:main.c        ****             estado = rxData;
 138              		.loc 1 124 0 is_stmt 0 discriminator 1
 139 000c 5028     		cmp	r0, #80
 140 000e 01D0     		beq	.L11
 124:main.c        ****             estado = rxData;
 141              		.loc 1 124 0 discriminator 2
 142 0010 4628     		cmp	r0, #70
 143 0012 04D1     		bne	.L12
 144              	.L11:
 125:main.c        ****             n = 0;
 145              		.loc 1 125 0 is_stmt 1
 146 0014 134B     		ldr	r3, .L17
 147 0016 5870     		strb	r0, [r3, #1]
 126:main.c        ****         } else {
 148              		.loc 1 126 0
 149 0018 0022     		movs	r2, #0
 150 001a 5A80     		strh	r2, [r3, #2]	@ movhi
 151 001c 1AE0     		b	.L10
 152              	.L12:
 128:main.c        ****             if (n == (N * 4)) { 
 153              		.loc 1 128 0
 154 001e 114B     		ldr	r3, .L17
 155 0020 5B88     		ldrh	r3, [r3, #2]
 156 0022 B3F57A6F 		cmp	r3, #4000
 157 0026 04D2     		bcs	.L14
 128:main.c        ****             if (n == (N * 4)) { 
 158              		.loc 1 128 0 is_stmt 0 discriminator 1
 159 0028 0E4A     		ldr	r2, .L17
 160 002a 591C     		adds	r1, r3, #1
 161 002c 5180     		strh	r1, [r2, #2]	@ movhi
 162 002e 1344     		add	r3, r3, r2
 163 0030 1871     		strb	r0, [r3, #4]
 164              	.L14:
 129:main.c        ****                 convertToIntFloat(x, y_entrada, N*4);
 165              		.loc 1 129 0 is_stmt 1
 166 0032 0C4B     		ldr	r3, .L17
 167 0034 5B88     		ldrh	r3, [r3, #2]
 168 0036 B3F57A6F 		cmp	r3, #4000
 169 003a 0BD1     		bne	.L10
 130:main.c        ****                 estado = 'X'; 
 170              		.loc 1 130 0
 171 003c 094C     		ldr	r4, .L17
 172 003e 4FF47A62 		mov	r2, #4000
 173 0042 04F6A471 		addw	r1, r4, #4004
 174 0046 201D     		adds	r0, r4, #4
 175              	.LVL7:
 176 0048 FFF7FEFF 		bl	convertToIntFloat
 177              	.LVL8:
 131:main.c        ****                 n = 0;
 178              		.loc 1 131 0
 179 004c 5823     		movs	r3, #88
 180 004e 6370     		strb	r3, [r4, #1]
 132:main.c        ****             }
ARM GAS  C:\Users\Admin\AppData\Local\Temp\ccbzl01X.s 			page 7


 181              		.loc 1 132 0
 182 0050 0023     		movs	r3, #0
 183 0052 6380     		strh	r3, [r4, #2]	@ movhi
 184              	.L10:
 121:main.c        ****     {
 185              		.loc 1 121 0
 186 0054 FFF7FEFF 		bl	UART_1_GetRxBufferSize
 187              	.LVL9:
 188 0058 0028     		cmp	r0, #0
 189 005a D3D1     		bne	.L15
 136:main.c        **** }
 190              		.loc 1 136 0
 191 005c FFF7FEFF 		bl	isr_rx_ClearPending
 192              	.LVL10:
 193 0060 10BD     		pop	{r4, pc}
 194              	.L18:
 195 0062 00BF     		.align	2
 196              	.L17:
 197 0064 00000000 		.word	.LANCHOR0
 198              		.cfi_endproc
 199              	.LFE66:
 200              		.size	RxIsr, .-RxIsr
 201              		.global	__aeabi_fmul
 202              		.global	__aeabi_f2iz
 203              		.section	.text.convertToQ32,"ax",%progbits
 204              		.align	2
 205              		.global	convertToQ32
 206              		.thumb
 207              		.thumb_func
 208              		.type	convertToQ32, %function
 209              	convertToQ32:
 210              	.LFB68:
 147:main.c        **** 
 148:main.c        **** void convertToQ32(const float* input, uint32_t* output, size_t size) {
 211              		.loc 1 148 0
 212              		.cfi_startproc
 213              		@ args = 0, pretend = 0, frame = 0
 214              		@ frame_needed = 0, uses_anonymous_args = 0
 215              	.LVL11:
 216 0000 F8B5     		push	{r3, r4, r5, r6, r7, lr}
 217              		.cfi_def_cfa_offset 24
 218              		.cfi_offset 3, -24
 219              		.cfi_offset 4, -20
 220              		.cfi_offset 5, -16
 221              		.cfi_offset 6, -12
 222              		.cfi_offset 7, -8
 223              		.cfi_offset 14, -4
 224 0002 0746     		mov	r7, r0
 225 0004 0E46     		mov	r6, r1
 226 0006 1546     		mov	r5, r2
 227              	.LVL12:
 228              	.LBB4:
 149:main.c        ****     for (size_t i = 0; i < size; i++) {
 229              		.loc 1 149 0
 230 0008 0024     		movs	r4, #0
 231 000a 0AE0     		b	.L20
 232              	.LVL13:
ARM GAS  C:\Users\Admin\AppData\Local\Temp\ccbzl01X.s 			page 8


 233              	.L21:
 150:main.c        ****         output[i] = (int32_t)(input[i] * Q_FACTOR); 
 234              		.loc 1 150 0 discriminator 3
 235 000c 4FF09641 		mov	r1, #1258291200
 236 0010 57F82400 		ldr	r0, [r7, r4, lsl #2]	@ float
 237 0014 FFF7FEFF 		bl	__aeabi_fmul
 238              	.LVL14:
 239 0018 FFF7FEFF 		bl	__aeabi_f2iz
 240              	.LVL15:
 241 001c 46F82400 		str	r0, [r6, r4, lsl #2]
 149:main.c        ****     for (size_t i = 0; i < size; i++) {
 242              		.loc 1 149 0 discriminator 3
 243 0020 0134     		adds	r4, r4, #1
 244              	.LVL16:
 245              	.L20:
 149:main.c        ****     for (size_t i = 0; i < size; i++) {
 246              		.loc 1 149 0 is_stmt 0 discriminator 1
 247 0022 AC42     		cmp	r4, r5
 248 0024 F2D3     		bcc	.L21
 249              	.LBE4:
 151:main.c        ****     }
 152:main.c        **** }
 250              		.loc 1 152 0 is_stmt 1
 251 0026 F8BD     		pop	{r3, r4, r5, r6, r7, pc}
 252              		.cfi_endproc
 253              	.LFE68:
 254              		.size	convertToQ32, .-convertToQ32
 255              		.global	__aeabi_i2f
 256              		.section	.text.convertFromQ32,"ax",%progbits
 257              		.align	2
 258              		.global	convertFromQ32
 259              		.thumb
 260              		.thumb_func
 261              		.type	convertFromQ32, %function
 262              	convertFromQ32:
 263              	.LFB69:
 153:main.c        **** 
 154:main.c        **** void convertFromQ32(const uint32_t* input, float* output, size_t size) {
 264              		.loc 1 154 0
 265              		.cfi_startproc
 266              		@ args = 0, pretend = 0, frame = 0
 267              		@ frame_needed = 0, uses_anonymous_args = 0
 268              	.LVL17:
 269 0000 F8B5     		push	{r3, r4, r5, r6, r7, lr}
 270              		.cfi_def_cfa_offset 24
 271              		.cfi_offset 3, -24
 272              		.cfi_offset 4, -20
 273              		.cfi_offset 5, -16
 274              		.cfi_offset 6, -12
 275              		.cfi_offset 7, -8
 276              		.cfi_offset 14, -4
 277 0002 0746     		mov	r7, r0
 278 0004 0E46     		mov	r6, r1
 279 0006 1546     		mov	r5, r2
 280              	.LVL18:
 281              	.LBB5:
 155:main.c        ****     for (size_t i = 0; i < size; i++) {
ARM GAS  C:\Users\Admin\AppData\Local\Temp\ccbzl01X.s 			page 9


 282              		.loc 1 155 0
 283 0008 0024     		movs	r4, #0
 284 000a 0AE0     		b	.L24
 285              	.LVL19:
 286              	.L25:
 156:main.c        ****         output[i] = (float)((int32_t)input[i] / Q_FACTOR);
 287              		.loc 1 156 0 discriminator 3
 288 000c 57F82400 		ldr	r0, [r7, r4, lsl #2]
 289 0010 FFF7FEFF 		bl	__aeabi_i2f
 290              	.LVL20:
 291 0014 4FF05051 		mov	r1, #872415232
 292 0018 FFF7FEFF 		bl	__aeabi_fmul
 293              	.LVL21:
 294 001c 46F82400 		str	r0, [r6, r4, lsl #2]	@ float
 155:main.c        ****     for (size_t i = 0; i < size; i++) {
 295              		.loc 1 155 0 discriminator 3
 296 0020 0134     		adds	r4, r4, #1
 297              	.LVL22:
 298              	.L24:
 155:main.c        ****     for (size_t i = 0; i < size; i++) {
 299              		.loc 1 155 0 is_stmt 0 discriminator 1
 300 0022 AC42     		cmp	r4, r5
 301 0024 F2D3     		bcc	.L25
 302              	.LBE5:
 157:main.c        ****     }
 158:main.c        **** }
 303              		.loc 1 158 0 is_stmt 1
 304 0026 F8BD     		pop	{r3, r4, r5, r6, r7, pc}
 305              		.cfi_endproc
 306              	.LFE69:
 307              		.size	convertFromQ32, .-convertFromQ32
 308              		.section	.text.my_Start,"ax",%progbits
 309              		.align	2
 310              		.global	my_Start
 311              		.thumb
 312              		.thumb_func
 313              		.type	my_Start, %function
 314              	my_Start:
 315              	.LFB70:
 159:main.c        **** 
 160:main.c        **** void my_Start(){    UART_1_Start();
 316              		.loc 1 160 0
 317              		.cfi_startproc
 318              		@ args = 0, pretend = 0, frame = 0
 319              		@ frame_needed = 0, uses_anonymous_args = 0
 320 0000 08B5     		push	{r3, lr}
 321              		.cfi_def_cfa_offset 8
 322              		.cfi_offset 3, -8
 323              		.cfi_offset 14, -4
 324              		.loc 1 160 0
 325 0002 FFF7FEFF 		bl	UART_1_Start
 326              	.LVL23:
 161:main.c        ****     Filter_1_Start(); 
 327              		.loc 1 161 0
 328 0006 FFF7FEFF 		bl	Filter_1_Start
 329              	.LVL24:
 330 000a 08BD     		pop	{r3, pc}
ARM GAS  C:\Users\Admin\AppData\Local\Temp\ccbzl01X.s 			page 10


 331              		.cfi_endproc
 332              	.LFE70:
 333              		.size	my_Start, .-my_Start
 334              		.section	.text.main,"ax",%progbits
 335              		.align	2
 336              		.global	main
 337              		.thumb
 338              		.thumb_func
 339              		.type	main, %function
 340              	main:
 341              	.LFB64:
  38:main.c        ****     my_Start();
 342              		.loc 1 38 0
 343              		.cfi_startproc
 344              		@ args = 0, pretend = 0, frame = 0
 345              		@ frame_needed = 0, uses_anonymous_args = 0
 346 0000 F8B5     		push	{r3, r4, r5, r6, r7, lr}
 347              		.cfi_def_cfa_offset 24
 348              		.cfi_offset 3, -24
 349              		.cfi_offset 4, -20
 350              		.cfi_offset 5, -16
 351              		.cfi_offset 6, -12
 352              		.cfi_offset 7, -8
 353              		.cfi_offset 14, -4
  39:main.c        ****     isr_rx_StartEx(RxIsr);
 354              		.loc 1 39 0
 355 0002 FFF7FEFF 		bl	my_Start
 356              	.LVL25:
  40:main.c        ****     isr_dma_done_StartEx(DMA_Done_ISR);
 357              		.loc 1 40 0
 358 0006 6348     		ldr	r0, .L44
 359 0008 FFF7FEFF 		bl	isr_rx_StartEx
 360              	.LVL26:
  41:main.c        ****     CyGlobalIntEnable;
 361              		.loc 1 41 0
 362 000c 6248     		ldr	r0, .L44+4
 363 000e FFF7FEFF 		bl	isr_dma_done_StartEx
 364              	.LVL27:
  42:main.c        **** 
 365              		.loc 1 42 0
 366              		.syntax unified
 367              	@ 42 "main.c" 1
 368 0012 62B6     		CPSIE   i
 369              	@ 0 "" 2
  44:main.c        ****     DMA_In_TD[0] = CyDmaTdAllocate();
 370              		.loc 1 44 0
 371              		.thumb
 372              		.syntax unified
 373 0014 4FF48043 		mov	r3, #16384
 374 0018 41F6FF72 		movw	r2, #8191
 375 001c 0121     		movs	r1, #1
 376 001e 0420     		movs	r0, #4
 377 0020 FFF7FEFF 		bl	DMA_In_DmaInitialize
 378              	.LVL28:
 379 0024 5D4B     		ldr	r3, .L44+8
 380 0026 1870     		strb	r0, [r3]
  45:main.c        ****     DMA_Out_Chan = DMA_Out_DmaInitialize(4, 1, HI16(CYDEV_PERIPH_BASE), HI16(CYDEV_SRAM_BASE));
ARM GAS  C:\Users\Admin\AppData\Local\Temp\ccbzl01X.s 			page 11


 381              		.loc 1 45 0
 382 0028 FFF7FEFF 		bl	CyDmaTdAllocate
 383              	.LVL29:
 384 002c 5C4B     		ldr	r3, .L44+12
 385 002e 1870     		strb	r0, [r3]
  46:main.c        ****     DMA_Out_TD[0] = CyDmaTdAllocate();
 386              		.loc 1 46 0
 387 0030 41F6FF73 		movw	r3, #8191
 388 0034 4FF48042 		mov	r2, #16384
 389 0038 0121     		movs	r1, #1
 390 003a 0420     		movs	r0, #4
 391 003c FFF7FEFF 		bl	DMA_Out_DmaInitialize
 392              	.LVL30:
 393 0040 584B     		ldr	r3, .L44+16
 394 0042 1870     		strb	r0, [r3]
  47:main.c        ****  
 395              		.loc 1 47 0
 396 0044 FFF7FEFF 		bl	CyDmaTdAllocate
 397              	.LVL31:
 398 0048 574B     		ldr	r3, .L44+20
 399 004a 1870     		strb	r0, [r3]
 400              	.L31:
  51:main.c        ****             case '0': break;
 401              		.loc 1 51 0
 402 004c 574B     		ldr	r3, .L44+24
 403 004e 5B78     		ldrb	r3, [r3, #1]	@ zero_extendqisi2
 404 0050 463B     		subs	r3, r3, #70
 405 0052 122B     		cmp	r3, #18
 406 0054 FAD8     		bhi	.L31
 407 0056 01A2     		adr	r2, .L33
 408 0058 52F823F0 		ldr	pc, [r2, r3, lsl #2]
 409              		.p2align 2
 410              	.L33:
 411 005c 85010000 		.word	.L41+1
 412 0060 4D000000 		.word	.L31+1
 413 0064 4D000000 		.word	.L31+1
 414 0068 A9000000 		.word	.L34+1
 415 006c 4D000000 		.word	.L31+1
 416 0070 4D000000 		.word	.L31+1
 417 0074 4D000000 		.word	.L31+1
 418 0078 4D000000 		.word	.L31+1
 419 007c 4D000000 		.word	.L31+1
 420 0080 4D000000 		.word	.L31+1
 421 0084 63010000 		.word	.L42+1
 422 0088 4D000000 		.word	.L31+1
 423 008c 4D000000 		.word	.L31+1
 424 0090 4D000000 		.word	.L31+1
 425 0094 4D000000 		.word	.L31+1
 426 0098 4D000000 		.word	.L31+1
 427 009c 4D000000 		.word	.L31+1
 428 00a0 33010000 		.word	.L36+1
 429 00a4 B1000000 		.word	.L37+1
 430              		.p2align 1
 431              	.L34:
  53:main.c        ****             
 432              		.loc 1 53 0
 433 00a8 3022     		movs	r2, #48
ARM GAS  C:\Users\Admin\AppData\Local\Temp\ccbzl01X.s 			page 12


 434 00aa 404B     		ldr	r3, .L44+24
 435 00ac 5A70     		strb	r2, [r3, #1]
 436 00ae CDE7     		b	.L31
 437              	.L37:
  56:main.c        ****                 
 438              		.loc 1 56 0
 439 00b0 3E4C     		ldr	r4, .L44+24
 440 00b2 0023     		movs	r3, #0
 441 00b4 2370     		strb	r3, [r4]
  58:main.c        ****                 
 442              		.loc 1 58 0
 443 00b6 3E4D     		ldr	r5, .L44+28
 444 00b8 4FF47A72 		mov	r2, #1000
 445 00bc 2946     		mov	r1, r5
 446 00be 04F6A470 		addw	r0, r4, #4004
 447 00c2 FFF7FEFF 		bl	convertToQ32
 448              	.LVL32:
  61:main.c        ****                 CyDmaTdSetAddress(DMA_In_TD[0], LO16((uint32)y_entrada_q32), LO16((uint32)Filter_1_
 449              		.loc 1 61 0
 450 00c6 364F     		ldr	r7, .L44+12
 451 00c8 3878     		ldrb	r0, [r7]	@ zero_extendqisi2
 452 00ca 0123     		movs	r3, #1
 453 00cc 0246     		mov	r2, r0
 454 00ce 4FF47A61 		mov	r1, #4000
 455 00d2 FFF7FEFF 		bl	CyDmaTdSetConfiguration
 456              	.LVL33:
  62:main.c        ****                 
 457              		.loc 1 62 0
 458 00d6 4CF2A072 		movw	r2, #51104
 459 00da A9B2     		uxth	r1, r5
 460 00dc 3878     		ldrb	r0, [r7]	@ zero_extendqisi2
 461 00de FFF7FEFF 		bl	CyDmaTdSetAddress
 462              	.LVL34:
  65:main.c        ****                 CyDmaTdSetAddress(DMA_Out_TD[0], LO16((uint32)Filter_1_HOLDA_PTR), LO16((uint32)y_s
 463              		.loc 1 65 0
 464 00e2 314E     		ldr	r6, .L44+20
 465 00e4 3078     		ldrb	r0, [r6]	@ zero_extendqisi2
 466 00e6 0623     		movs	r3, #6
 467 00e8 0246     		mov	r2, r0
 468 00ea 4FF47A61 		mov	r1, #4000
 469 00ee FFF7FEFF 		bl	CyDmaTdSetConfiguration
 470              	.LVL35:
  66:main.c        ****                 
 471              		.loc 1 66 0
 472 00f2 304A     		ldr	r2, .L44+32
 473 00f4 92B2     		uxth	r2, r2
 474 00f6 4CF2A871 		movw	r1, #51112
 475 00fa 3078     		ldrb	r0, [r6]	@ zero_extendqisi2
 476 00fc FFF7FEFF 		bl	CyDmaTdSetAddress
 477              	.LVL36:
  68:main.c        ****                 CyDmaChSetInitialTd(DMA_Out_Chan, DMA_Out_TD[0]);
 478              		.loc 1 68 0
 479 0100 264D     		ldr	r5, .L44+8
 480 0102 3978     		ldrb	r1, [r7]	@ zero_extendqisi2
 481 0104 2878     		ldrb	r0, [r5]	@ zero_extendqisi2
 482 0106 FFF7FEFF 		bl	CyDmaChSetInitialTd
 483              	.LVL37:
ARM GAS  C:\Users\Admin\AppData\Local\Temp\ccbzl01X.s 			page 13


  69:main.c        ****                 
 484              		.loc 1 69 0
 485 010a 264F     		ldr	r7, .L44+16
 486 010c 3178     		ldrb	r1, [r6]	@ zero_extendqisi2
 487 010e 3878     		ldrb	r0, [r7]	@ zero_extendqisi2
 488 0110 FFF7FEFF 		bl	CyDmaChSetInitialTd
 489              	.LVL38:
  71:main.c        ****                 CyDmaChEnable(DMA_Out_Chan, 1);
 490              		.loc 1 71 0
 491 0114 0121     		movs	r1, #1
 492 0116 2878     		ldrb	r0, [r5]	@ zero_extendqisi2
 493 0118 FFF7FEFF 		bl	CyDmaChEnable
 494              	.LVL39:
  72:main.c        ****                 
 495              		.loc 1 72 0
 496 011c 0121     		movs	r1, #1
 497 011e 3878     		ldrb	r0, [r7]	@ zero_extendqisi2
 498 0120 FFF7FEFF 		bl	CyDmaChEnable
 499              	.LVL40:
  78:main.c        ****                 
 500              		.loc 1 78 0
 501 0124 0121     		movs	r1, #1
 502 0126 2878     		ldrb	r0, [r5]	@ zero_extendqisi2
 503 0128 FFF7FEFF 		bl	CyDmaChSetRequest
 504              	.LVL41:
  80:main.c        ****                 break;
 505              		.loc 1 80 0
 506 012c 5723     		movs	r3, #87
 507 012e 6370     		strb	r3, [r4, #1]
  81:main.c        **** 
 508              		.loc 1 81 0
 509 0130 8CE7     		b	.L31
 510              	.L36:
  84:main.c        ****                 {
 511              		.loc 1 84 0
 512 0132 1E4B     		ldr	r3, .L44+24
 513 0134 1B78     		ldrb	r3, [r3]	@ zero_extendqisi2
 514 0136 DBB2     		uxtb	r3, r3
 515 0138 012B     		cmp	r3, #1
 516 013a 87D1     		bne	.L31
  86:main.c        ****                     estado = '0';
 517              		.loc 1 86 0
 518 013c 4FF47A72 		mov	r2, #1000
 519 0140 1D49     		ldr	r1, .L44+36
 520 0142 1C48     		ldr	r0, .L44+32
 521 0144 FFF7FEFF 		bl	convertFromQ32
 522              	.LVL42:
  87:main.c        ****                 }
 523              		.loc 1 87 0
 524 0148 3022     		movs	r2, #48
 525 014a 184B     		ldr	r3, .L44+24
 526 014c 5A70     		strb	r2, [r3, #1]
 527 014e 7DE7     		b	.L31
 528              	.LVL43:
 529              	.L39:
 530              	.LBB6:
  93:main.c        ****                 }
ARM GAS  C:\Users\Admin\AppData\Local\Temp\ccbzl01X.s 			page 14


 531              		.loc 1 93 0 discriminator 3
 532 0150 164B     		ldr	r3, .L44+24
 533 0152 03EB8403 		add	r3, r3, r4, lsl #2
 534 0156 D3F8A40F 		ldr	r0, [r3, #4004]	@ float
 535 015a FFF7FEFF 		bl	Chart_1_Plot
 536              	.LVL44:
  92:main.c        ****                     Chart_1_Plot(y_entrada[j]);
 537              		.loc 1 92 0 discriminator 3
 538 015e 0134     		adds	r4, r4, #1
 539              	.LVL45:
 540 0160 00E0     		b	.L35
 541              	.LVL46:
 542              	.L42:
 543              	.LBE6:
  51:main.c        ****             case '0': break;
 544              		.loc 1 51 0
 545 0162 0024     		movs	r4, #0
 546              	.L35:
 547              	.LVL47:
 548              	.LBB7:
  92:main.c        ****                     Chart_1_Plot(y_entrada[j]);
 549              		.loc 1 92 0 discriminator 1
 550 0164 B4F57A7F 		cmp	r4, #1000
 551 0168 F2DB     		blt	.L39
 552              	.LBE7:
  95:main.c        ****                 break;
 553              		.loc 1 95 0
 554 016a 3022     		movs	r2, #48
 555 016c 0F4B     		ldr	r3, .L44+24
 556 016e 5A70     		strb	r2, [r3, #1]
  96:main.c        ****                 
 557              		.loc 1 96 0
 558 0170 6CE7     		b	.L31
 559              	.LVL48:
 560              	.L40:
 561              	.LBB8:
 100:main.c        ****                 }
 562              		.loc 1 100 0 discriminator 3
 563 0172 124B     		ldr	r3, .L44+40
 564 0174 03EB8403 		add	r3, r3, r4, lsl #2
 565 0178 D3F89C0B 		ldr	r0, [r3, #2972]	@ float
 566 017c FFF7FEFF 		bl	Chart_1_Plot
 567              	.LVL49:
  99:main.c        ****                     Chart_1_Plot(y_salida[j]);
 568              		.loc 1 99 0 discriminator 3
 569 0180 0134     		adds	r4, r4, #1
 570              	.LVL50:
 571 0182 00E0     		b	.L32
 572              	.LVL51:
 573              	.L41:
 574              	.LBE8:
  51:main.c        ****             case '0': break;
 575              		.loc 1 51 0
 576 0184 0024     		movs	r4, #0
 577              	.L32:
 578              	.LVL52:
 579              	.LBB9:
ARM GAS  C:\Users\Admin\AppData\Local\Temp\ccbzl01X.s 			page 15


  99:main.c        ****                     Chart_1_Plot(y_salida[j]);
 580              		.loc 1 99 0 discriminator 1
 581 0186 B4F57A7F 		cmp	r4, #1000
 582 018a F2DB     		blt	.L40
 583              	.LBE9:
 102:main.c        ****             break;
 584              		.loc 1 102 0
 585 018c 3022     		movs	r2, #48
 586 018e 074B     		ldr	r3, .L44+24
 587 0190 5A70     		strb	r2, [r3, #1]
 103:main.c        ****         }
 588              		.loc 1 103 0
 589 0192 5BE7     		b	.L31
 590              	.L45:
 591              		.align	2
 592              	.L44:
 593 0194 00000000 		.word	RxIsr
 594 0198 00000000 		.word	DMA_Done_ISR
 595 019c 00000000 		.word	DMA_In_Chan
 596 01a0 00000000 		.word	DMA_In_TD
 597 01a4 00000000 		.word	DMA_Out_Chan
 598 01a8 00000000 		.word	DMA_Out_TD
 599 01ac 00000000 		.word	.LANCHOR0
 600 01b0 441F0000 		.word	.LANCHOR1+3660
 601 01b4 E42E0000 		.word	.LANCHOR2+3316
 602 01b8 843E0000 		.word	.LANCHOR3+2972
 603 01bc E8320000 		.word	.LANCHOR3
 604              		.cfi_endproc
 605              	.LFE64:
 606              		.size	main, .-main
 607              		.comm	DMA_Out_TD,1,4
 608              		.comm	DMA_In_TD,1,4
 609              		.comm	DMA_Out_Chan,1,1
 610              		.comm	DMA_In_Chan,1,1
 611              		.global	dma_transfer_complete_flag
 612              		.global	estado
 613              		.global	y_salida
 614              		.global	y_entrada
 615              		.bss
 616              		.align	2
 617              		.set	.LANCHOR0,. + 0
 618              		.set	.LANCHOR1,. + 4344
 619              		.set	.LANCHOR2,. + 8688
 620              		.set	.LANCHOR3,. + 13032
 621              		.type	dma_transfer_complete_flag, %object
 622              		.size	dma_transfer_complete_flag, 1
 623              	dma_transfer_complete_flag:
 624 0000 00       		.space	1
 625              		.type	estado, %object
 626              		.size	estado, 1
 627              	estado:
 628 0001 00       		.space	1
 629              		.type	n, %object
 630              		.size	n, 2
 631              	n:
 632 0002 0000     		.space	2
 633              		.type	x, %object
ARM GAS  C:\Users\Admin\AppData\Local\Temp\ccbzl01X.s 			page 16


 634              		.size	x, 4000
 635              	x:
 636 0004 00000000 		.space	4000
 636      00000000 
 636      00000000 
 636      00000000 
 636      00000000 
 637              		.type	y_entrada, %object
 638              		.size	y_entrada, 4000
 639              	y_entrada:
 640 0fa4 00000000 		.space	4000
 640      00000000 
 640      00000000 
 640      00000000 
 640      00000000 
 641              		.type	y_entrada_q32, %object
 642              		.size	y_entrada_q32, 4000
 643              	y_entrada_q32:
 644 1f44 00000000 		.space	4000
 644      00000000 
 644      00000000 
 644      00000000 
 644      00000000 
 645              		.type	y_salida_q32, %object
 646              		.size	y_salida_q32, 4000
 647              	y_salida_q32:
 648 2ee4 00000000 		.space	4000
 648      00000000 
 648      00000000 
 648      00000000 
 648      00000000 
 649              		.type	y_salida, %object
 650              		.size	y_salida, 4000
 651              	y_salida:
 652 3e84 00000000 		.space	4000
 652      00000000 
 652      00000000 
 652      00000000 
 652      00000000 
 653              		.text
 654              	.Letext0:
 655              		.file 2 "e:\\cypress\\psoc creator\\4.4\\psoc creator\\import\\gnu\\arm\\5.4.1\\arm-none-eabi\\inc
 656              		.file 3 "e:\\cypress\\psoc creator\\4.4\\psoc creator\\import\\gnu\\arm\\5.4.1\\arm-none-eabi\\inc
 657              		.file 4 "Generated_Source\\PSoC5/cytypes.h"
 658              		.file 5 "e:\\cypress\\psoc creator\\4.4\\psoc creator\\import\\gnu\\arm\\5.4.1\\lib\\gcc\\arm-none
 659              		.file 6 "Generated_Source\\PSoC5/core_cm3.h"
 660              		.file 7 "Generated_Source\\PSoC5/isr_dma_done.h"
 661              		.file 8 "Generated_Source\\PSoC5/UART_1.h"
 662              		.file 9 "Generated_Source\\PSoC5/isr_rx.h"
 663              		.file 10 "Generated_Source\\PSoC5/Filter_1.h"
 664              		.file 11 "Generated_Source\\PSoC5/Chart_1.h"
 665              		.file 12 "Generated_Source\\PSoC5/DMA_In_dma.h"
 666              		.file 13 "Generated_Source\\PSoC5/CYDMAC.H"
 667              		.file 14 "Generated_Source\\PSoC5/DMA_Out_dma.h"